	.file	"pi.c"
	.text
.Ltext0:
	.file 0 "/home/sam/Desktop/2022-Fall-Parallel-Programming/HW2/part1" "pi.c"
	.p2align 4
	.globl	single_thread_estimation_SIMD
	.type	single_thread_estimation_SIMD, @function
single_thread_estimation_SIMD:
.LVL0:
.LFB5700:
	.file 1 "pi.c"
	.loc 1 33 50 view -0
	.cfi_startproc
	.loc 1 33 50 is_stmt 0 view .LVU1
	endbr64
	pushq	%rbp
	.cfi_def_cfa_offset 16
	.cfi_offset 6, -16
	movq	%rsp, %rbp
	.cfi_def_cfa_register 6
	pushq	%r14
	pushq	%r13
	.cfi_offset 14, -24
	.cfi_offset 13, -32
	.loc 1 36 28 view .LVU2
	leaq	7(%rdi), %r13
	.loc 1 33 50 view .LVU3
	pushq	%r12
	pushq	%rbx
	.cfi_offset 12, -40
	.cfi_offset 3, -48
	movq	%rdi, %rbx
	andq	$-32, %rsp
	subq	$160, %rsp
	.loc 1 33 50 view .LVU4
	movq	%fs:40, %rax
	movq	%rax, 152(%rsp)
	xorl	%eax, %eax
	.loc 1 34 5 is_stmt 1 view .LVU5
	.loc 1 36 5 view .LVU6
.LVL1:
	.loc 1 36 28 is_stmt 0 view .LVU7
	testq	%rdi, %rdi
	.loc 1 51 5 view .LVU8
	leaq	64(%rsp), %r12
	.loc 1 36 28 view .LVU9
	cmovns	%rdi, %r13
	.loc 1 49 20 view .LVU10
	call	rand@PLT
.LVL2:
	.loc 1 49 20 view .LVU11
	movl	%eax, %r14d
	.loc 1 36 28 view .LVU12
	sarq	$3, %r13
.LVL3:
	.loc 1 38 5 is_stmt 1 view .LVU13
	.loc 1 39 5 view .LVU14
	.loc 1 40 5 view .LVU15
	.loc 1 42 5 view .LVU16
	.loc 1 43 5 view .LVU17
	.loc 1 44 5 view .LVU18
	.loc 1 45 5 view .LVU19
	.loc 1 47 5 view .LVU20
	.loc 1 49 5 view .LVU21
	.loc 1 50 5 view .LVU22
	.loc 1 50 20 is_stmt 0 view .LVU23
	call	rand@PLT
.LVL4:
	.loc 1 51 5 is_stmt 1 view .LVU24
	.loc 1 49 20 is_stmt 0 view .LVU25
	movslq	%r14d, %rdi
.LVL5:
	.loc 1 51 5 view .LVU26
	movq	%r12, %rdx
	.loc 1 50 20 view .LVU27
	movslq	%eax, %rsi
.LVL6:
	.loc 1 51 5 view .LVU28
	call	avx_xorshift128plus_init@PLT
.LVL7:
	.loc 1 54 5 is_stmt 1 view .LVU29
.LBB48:
	.loc 1 54 10 view .LVU30
	.loc 1 54 36 view .LVU31
	cmpq	$7, %rbx
	jle	.L5
	.loc 1 54 24 is_stmt 0 view .LVU32
	xorl	%ebx, %ebx
.LVL8:
	.loc 1 54 24 view .LVU33
.LBE48:
	.loc 1 43 17 view .LVU34
	vpxor	%xmm1, %xmm1, %xmm1
.LVL9:
	.p2align 4,,10
	.p2align 3
.L3:
.LBB85:
	.loc 1 56 19 discriminator 3 view .LVU35
	movq	%r12, %rdi
	vmovdqa	%ymm1, (%rsp)
.LVL10:
	.loc 1 56 9 is_stmt 1 discriminator 3 view .LVU36
	.loc 1 56 19 is_stmt 0 discriminator 3 view .LVU37
	vzeroupper
.LVL11:
	.loc 1 56 19 discriminator 3 view .LVU38
	call	avx_xorshift128plus@PLT
.LVL12:
	.loc 1 57 9 is_stmt 1 discriminator 3 view .LVU39
.LBB49:
.LBI49:
	.file 2 "/usr/lib/gcc/x86_64-linux-gnu/11/include/avxintrin.h"
	.loc 2 461 1 discriminator 3 view .LVU40
.LBB50:
	.loc 2 463 3 discriminator 3 view .LVU41
.LBE50:
.LBE49:
	.loc 1 61 19 is_stmt 0 discriminator 3 view .LVU42
	movq	%r12, %rdi
.LBB52:
.LBB51:
	.loc 2 463 18 discriminator 3 view .LVU43
	vcvtdq2ps	%ymm0, %ymm0
.LVL13:
	.loc 2 463 18 discriminator 3 view .LVU44
.LBE51:
.LBE52:
	.loc 1 58 9 is_stmt 1 discriminator 3 view .LVU45
.LBB53:
.LBI53:
	.loc 2 241 1 discriminator 3 view .LVU46
.LBB54:
	.loc 2 243 3 discriminator 3 view .LVU47
	.loc 2 243 10 is_stmt 0 discriminator 3 view .LVU48
	vmulps	.LC0(%rip), %ymm0, %ymm0
.LVL14:
	.loc 2 243 10 discriminator 3 view .LVU49
.LBE54:
.LBE53:
	.loc 1 59 9 is_stmt 1 discriminator 3 view .LVU50
.LBB55:
.LBI55:
	.loc 2 318 1 discriminator 3 view .LVU51
.LBB56:
	.loc 2 320 3 discriminator 3 view .LVU52
	.loc 2 320 3 is_stmt 0 discriminator 3 view .LVU53
.LBE56:
.LBE55:
	.loc 1 61 9 is_stmt 1 discriminator 3 view .LVU54
.LBB58:
.LBB57:
	.loc 2 320 10 is_stmt 0 discriminator 3 view .LVU55
	vmulps	%ymm0, %ymm0, %ymm2
	vmovaps	%ymm2, 32(%rsp)
.LVL15:
	.loc 2 320 10 discriminator 3 view .LVU56
.LBE57:
.LBE58:
	.loc 1 61 19 discriminator 3 view .LVU57
	vzeroupper
	.loc 1 54 56 discriminator 3 view .LVU58
	addq	$1, %rbx
.LVL16:
	.loc 1 61 19 discriminator 3 view .LVU59
	call	avx_xorshift128plus@PLT
.LVL17:
	.loc 1 62 9 is_stmt 1 discriminator 3 view .LVU60
.LBB59:
.LBI59:
	.loc 2 461 1 discriminator 3 view .LVU61
.LBB60:
	.loc 2 463 3 discriminator 3 view .LVU62
.LBE60:
.LBE59:
.LBB62:
.LBB63:
	.file 3 "/usr/lib/gcc/x86_64-linux-gnu/11/include/avx2intrin.h"
	.loc 3 121 10 is_stmt 0 discriminator 3 view .LVU63
	vmovdqa	(%rsp), %ymm1
.LBE63:
.LBE62:
.LBB65:
.LBB61:
	.loc 2 463 18 discriminator 3 view .LVU64
	vcvtdq2ps	%ymm0, %ymm0
.LVL18:
	.loc 2 463 18 discriminator 3 view .LVU65
.LBE61:
.LBE65:
	.loc 1 63 9 is_stmt 1 discriminator 3 view .LVU66
.LBB66:
.LBI66:
	.loc 2 241 1 discriminator 3 view .LVU67
.LBB67:
	.loc 2 243 3 discriminator 3 view .LVU68
	.loc 2 243 10 is_stmt 0 discriminator 3 view .LVU69
	vmulps	.LC0(%rip), %ymm0, %ymm0
.LVL19:
	.loc 2 243 10 discriminator 3 view .LVU70
.LBE67:
.LBE66:
	.loc 1 64 9 is_stmt 1 discriminator 3 view .LVU71
.LBB68:
.LBI68:
	.loc 2 318 1 discriminator 3 view .LVU72
.LBB69:
	.loc 2 320 3 discriminator 3 view .LVU73
	.loc 2 320 3 is_stmt 0 discriminator 3 view .LVU74
.LBE69:
.LBE68:
	.loc 1 67 9 is_stmt 1 discriminator 3 view .LVU75
.LBB71:
.LBI71:
	.loc 2 147 1 discriminator 3 view .LVU76
.LBB72:
	.loc 2 149 3 discriminator 3 view .LVU77
	.loc 2 149 3 is_stmt 0 discriminator 3 view .LVU78
.LBE72:
.LBE71:
	.loc 1 71 9 is_stmt 1 discriminator 3 view .LVU79
.LBB74:
.LBI74:
	.loc 2 404 1 discriminator 3 view .LVU80
.LBB75:
	.loc 2 406 3 discriminator 3 view .LVU81
.LBE75:
.LBE74:
.LBB77:
.LBB70:
	.loc 2 320 10 is_stmt 0 discriminator 3 view .LVU82
	vmulps	%ymm0, %ymm0, %ymm0
.LVL20:
	.loc 2 320 10 discriminator 3 view .LVU83
.LBE70:
.LBE77:
.LBB78:
.LBB73:
	.loc 2 149 10 discriminator 3 view .LVU84
	vaddps	32(%rsp), %ymm0, %ymm0
.LVL21:
	.loc 2 149 10 discriminator 3 view .LVU85
.LBE73:
.LBE78:
.LBB79:
.LBB76:
	.loc 2 406 19 discriminator 3 view .LVU86
	vcmpps	$2, .LC1(%rip), %ymm0, %ymm0
.LVL22:
	.loc 2 406 19 discriminator 3 view .LVU87
.LBE76:
.LBE79:
	.loc 1 72 9 is_stmt 1 discriminator 3 view .LVU88
.LBB80:
.LBI80:
	.loc 2 172 1 discriminator 3 view .LVU89
.LBB81:
	.loc 2 174 3 discriminator 3 view .LVU90
	.loc 2 174 19 is_stmt 0 discriminator 3 view .LVU91
	vandps	.LC1(%rip), %ymm0, %ymm0
.LVL23:
	.loc 2 174 19 discriminator 3 view .LVU92
.LBE81:
.LBE80:
	.loc 1 73 9 is_stmt 1 discriminator 3 view .LVU93
.LBB82:
.LBI82:
	.loc 2 473 1 discriminator 3 view .LVU94
.LBB83:
	.loc 2 475 3 discriminator 3 view .LVU95
	.loc 2 475 19 is_stmt 0 discriminator 3 view .LVU96
	vcvtps2dq	%ymm0, %ymm0
.LVL24:
	.loc 2 475 19 discriminator 3 view .LVU97
.LBE83:
.LBE82:
	.loc 1 74 9 is_stmt 1 discriminator 3 view .LVU98
.LBB84:
.LBI62:
	.loc 3 119 1 discriminator 3 view .LVU99
.LBB64:
	.loc 3 121 3 discriminator 3 view .LVU100
	.loc 3 121 10 is_stmt 0 discriminator 3 view .LVU101
	vpaddd	%ymm1, %ymm0, %ymm1
.LVL25:
	.loc 3 121 10 discriminator 3 view .LVU102
.LBE64:
.LBE84:
	.loc 1 54 56 is_stmt 1 discriminator 3 view .LVU103
	.loc 1 54 36 discriminator 3 view .LVU104
	cmpq	%rbx, %r13
	jg	.L3
.LVL26:
.L2:
	.loc 1 54 36 is_stmt 0 discriminator 3 view .LVU105
.LBE85:
	.loc 1 78 5 is_stmt 1 view .LVU106
	.loc 1 79 5 view .LVU107
.LBB86:
	.loc 1 79 10 view .LVU108
	.loc 1 79 20 view .LVU109
	.loc 1 80 9 view .LVU110
	.loc 1 80 23 is_stmt 0 view .LVU111
	vextracti128	$0x1, %ymm1, %xmm0
	vpmovsxdq	%xmm1, %ymm1
.LBE86:
	.loc 1 83 5 view .LVU112
	leaq	total_hit_mutex(%rip), %r12
.LBB87:
	.loc 1 80 23 view .LVU113
	vpmovsxdq	%xmm0, %ymm0
.LBE87:
	.loc 1 83 5 view .LVU114
	movq	%r12, %rdi
.LBB88:
	.loc 1 80 13 view .LVU115
	vpaddq	%ymm1, %ymm0, %ymm1
	.loc 1 79 25 is_stmt 1 view .LVU116
	.loc 1 79 20 view .LVU117
	vmovdqa	%xmm1, %xmm0
	vextracti128	$0x1, %ymm1, %xmm1
	vpaddq	%xmm1, %xmm0, %xmm0
	vmovdqa	%xmm0, 32(%rsp)
.LBE88:
	.loc 1 83 5 view .LVU118
	vzeroupper
	call	pthread_mutex_lock@PLT
.LVL27:
	.loc 1 84 5 view .LVU119
	.loc 1 84 15 is_stmt 0 view .LVU120
	vmovdqa	32(%rsp), %xmm0
	.loc 1 85 5 view .LVU121
	movq	%r12, %rdi
	.loc 1 84 15 view .LVU122
	vpsrldq	$8, %xmm0, %xmm1
	vpaddq	%xmm1, %xmm0, %xmm0
	vmovq	%xmm0, %rax
	addq	%rax, total_hit(%rip)
	.loc 1 85 5 is_stmt 1 view .LVU123
	call	pthread_mutex_unlock@PLT
.LVL28:
	.loc 1 86 5 view .LVU124
	.loc 1 87 1 is_stmt 0 view .LVU125
	movq	152(%rsp), %rax
	subq	%fs:40, %rax
	jne	.L9
	leaq	-32(%rbp), %rsp
	xorl	%eax, %eax
	popq	%rbx
	popq	%r12
	popq	%r13
.LVL29:
	.loc 1 87 1 view .LVU126
	popq	%r14
.LVL30:
	.loc 1 87 1 view .LVU127
	popq	%rbp
	.cfi_remember_state
	.cfi_def_cfa 7, 8
	ret
.LVL31:
	.p2align 4,,10
	.p2align 3
.L5:
	.cfi_restore_state
	.loc 1 43 17 view .LVU128
	vpxor	%xmm1, %xmm1, %xmm1
	jmp	.L2
.LVL32:
.L9:
	.loc 1 87 1 view .LVU129
	call	__stack_chk_fail@PLT
.LVL33:
	.cfi_endproc
.LFE5700:
	.size	single_thread_estimation_SIMD, .-single_thread_estimation_SIMD
	.p2align 4
	.globl	single_thread_estimation_serial
	.type	single_thread_estimation_serial, @function
single_thread_estimation_serial:
.LVL34:
.LFB5699:
	.loc 1 13 52 is_stmt 1 view -0
	.cfi_startproc
	.loc 1 13 52 is_stmt 0 view .LVU131
	endbr64
	pushq	%r13
	.cfi_def_cfa_offset 16
	.cfi_offset 13, -16
	movq	%rdi, %r13
	.loc 1 14 25 view .LVU132
	xorl	%edi, %edi
.LVL35:
	.loc 1 13 52 view .LVU133
	pushq	%r12
	.cfi_def_cfa_offset 24
	.cfi_offset 12, -24
	pushq	%rbp
	.cfi_def_cfa_offset 32
	.cfi_offset 6, -32
	pushq	%rbx
	.cfi_def_cfa_offset 40
	.cfi_offset 3, -40
	subq	$40, %rsp
	.cfi_def_cfa_offset 80
	.loc 1 13 52 view .LVU134
	movq	%fs:40, %rax
	movq	%rax, 24(%rsp)
	xorl	%eax, %eax
	.loc 1 14 5 is_stmt 1 view .LVU135
	.loc 1 14 25 is_stmt 0 view .LVU136
	call	time@PLT
.LVL36:
	.loc 1 14 18 view .LVU137
	movl	%eax, 20(%rsp)
	.loc 1 16 5 is_stmt 1 view .LVU138
.LVL37:
	.loc 1 17 5 view .LVU139
	.loc 1 18 5 view .LVU140
.LBB89:
	.loc 1 18 10 view .LVU141
	.loc 1 18 36 view .LVU142
	testq	%r13, %r13
	jle	.L16
	.loc 1 18 24 is_stmt 0 view .LVU143
	xorl	%ebx, %ebx
.LBE89:
	.loc 1 16 19 view .LVU144
	xorl	%ebp, %ebp
	leaq	20(%rsp), %r12
.LVL38:
	.p2align 4,,10
	.p2align 3
.L14:
.LBB90:
	.loc 1 19 9 is_stmt 1 view .LVU145
	.loc 1 19 23 is_stmt 0 view .LVU146
	movq	%r12, %rdi
	call	rand_r@PLT
.LVL39:
	.loc 1 19 14 view .LVU147
	vxorpd	%xmm2, %xmm2, %xmm2
	.loc 1 20 23 view .LVU148
	movq	%r12, %rdi
	.loc 1 19 14 view .LVU149
	vcvtsi2sdl	%eax, %xmm2, %xmm0
	.loc 1 19 11 view .LVU150
	vdivsd	.LC2(%rip), %xmm0, %xmm0
	vmovsd	%xmm0, 8(%rsp)
.LVL40:
	.loc 1 20 9 is_stmt 1 view .LVU151
	.loc 1 20 23 is_stmt 0 view .LVU152
	call	rand_r@PLT
.LVL41:
	.loc 1 21 18 view .LVU153
	vmovsd	8(%rsp), %xmm0
	.loc 1 20 14 view .LVU154
	vxorpd	%xmm2, %xmm2, %xmm2
	.loc 1 23 16 view .LVU155
	vmovsd	.LC3(%rip), %xmm3
	.loc 1 20 14 view .LVU156
	vcvtsi2sdl	%eax, %xmm2, %xmm1
	.loc 1 20 11 view .LVU157
	vdivsd	.LC2(%rip), %xmm1, %xmm1
.LVL42:
	.loc 1 21 9 is_stmt 1 view .LVU158
	.loc 1 22 9 view .LVU159
	.loc 1 21 26 is_stmt 0 view .LVU160
	vmulsd	%xmm1, %xmm1, %xmm1
.LVL43:
	.loc 1 21 18 view .LVU161
	vmulsd	%xmm0, %xmm0, %xmm0
	.loc 1 21 14 view .LVU162
	vaddsd	%xmm1, %xmm0, %xmm0
.LVL44:
	.loc 1 23 16 view .LVU163
	vcomisd	%xmm0, %xmm3
	sbbq	$-1, %rbp
.LVL45:
	.loc 1 18 51 is_stmt 1 view .LVU164
	addq	$1, %rbx
.LVL46:
	.loc 1 18 36 view .LVU165
	cmpq	%rbx, %r13
	jne	.L14
.LVL47:
.L11:
	.loc 1 18 36 is_stmt 0 view .LVU166
.LBE90:
	.loc 1 26 5 is_stmt 1 view .LVU167
	leaq	total_hit_mutex(%rip), %r12
	movq	%r12, %rdi
	call	pthread_mutex_lock@PLT
.LVL48:
	.loc 1 27 5 view .LVU168
	.loc 1 28 5 is_stmt 0 view .LVU169
	movq	%r12, %rdi
	.loc 1 27 15 view .LVU170
	addq	%rbp, total_hit(%rip)
	.loc 1 28 5 is_stmt 1 view .LVU171
	call	pthread_mutex_unlock@PLT
.LVL49:
	.loc 1 29 5 view .LVU172
	.loc 1 30 1 is_stmt 0 view .LVU173
	movq	24(%rsp), %rax
	subq	%fs:40, %rax
	jne	.L20
	addq	$40, %rsp
	.cfi_remember_state
	.cfi_def_cfa_offset 40
	xorl	%eax, %eax
	popq	%rbx
	.cfi_def_cfa_offset 32
	popq	%rbp
	.cfi_def_cfa_offset 24
	popq	%r12
	.cfi_def_cfa_offset 16
	popq	%r13
	.cfi_def_cfa_offset 8
.LVL50:
	.loc 1 30 1 view .LVU174
	ret
.LVL51:
	.p2align 4,,10
	.p2align 3
.L16:
	.cfi_restore_state
	.loc 1 16 19 view .LVU175
	xorl	%ebp, %ebp
	jmp	.L11
.LVL52:
.L20:
	.loc 1 30 1 view .LVU176
	call	__stack_chk_fail@PLT
.LVL53:
	.cfi_endproc
.LFE5699:
	.size	single_thread_estimation_serial, .-single_thread_estimation_serial
	.section	.rodata.str1.8,"aMS",@progbits,1
	.align 8
.LC4:
	.string	"Usage of command: ./pi.out #Thread #Tosses"
	.section	.rodata.str1.1,"aMS",@progbits,1
.LC5:
	.string	"e.g. ./pi.out 8 1000000000"
.LC6:
	.string	"%lf\n"
	.section	.text.startup,"ax",@progbits
	.p2align 4
	.globl	main
	.type	main, @function
main:
.LVL54:
.LFB5701:
	.loc 1 89 32 is_stmt 1 view -0
	.cfi_startproc
	.loc 1 89 32 is_stmt 0 view .LVU178
	endbr64
	.loc 1 91 5 is_stmt 1 view .LVU179
	.loc 1 89 32 is_stmt 0 view .LVU180
	pushq	%r15
	.cfi_def_cfa_offset 16
	.cfi_offset 15, -16
	pushq	%r14
	.cfi_def_cfa_offset 24
	.cfi_offset 14, -24
	pushq	%r13
	.cfi_def_cfa_offset 32
	.cfi_offset 13, -32
	pushq	%r12
	.cfi_def_cfa_offset 40
	.cfi_offset 12, -40
	pushq	%rbp
	.cfi_def_cfa_offset 48
	.cfi_offset 6, -48
	pushq	%rbx
	.cfi_def_cfa_offset 56
	.cfi_offset 3, -56
	subq	$24, %rsp
	.cfi_def_cfa_offset 80
	.loc 1 91 8 view .LVU181
	cmpl	$3, %edi
	je	.L22
	.loc 1 92 9 is_stmt 1 view .LVU182
.LVL55:
.LBB91:
.LBI91:
	.file 4 "/usr/include/x86_64-linux-gnu/bits/stdio2.h"
	.loc 4 110 1 view .LVU183
.LBB92:
	.loc 4 112 3 view .LVU184
	.loc 4 112 10 is_stmt 0 view .LVU185
	leaq	.LC4(%rip), %rdi
.LVL56:
	.loc 4 112 10 view .LVU186
	call	puts@PLT
.LVL57:
	.loc 4 112 10 view .LVU187
.LBE92:
.LBE91:
	.loc 1 93 9 is_stmt 1 view .LVU188
.LBB93:
.LBI93:
	.loc 4 110 1 view .LVU189
.LBB94:
	.loc 4 112 3 view .LVU190
	.loc 4 112 10 is_stmt 0 view .LVU191
	leaq	.LC5(%rip), %rdi
	call	puts@PLT
.LVL58:
	.loc 4 112 10 view .LVU192
.LBE94:
.LBE93:
	.loc 1 94 9 is_stmt 1 view .LVU193
	.loc 1 94 16 is_stmt 0 view .LVU194
	movl	$1, %eax
.L21:
	.loc 1 120 1 view .LVU195
	addq	$24, %rsp
	.cfi_remember_state
	.cfi_def_cfa_offset 56
	popq	%rbx
	.cfi_def_cfa_offset 48
	popq	%rbp
	.cfi_def_cfa_offset 40
	popq	%r12
	.cfi_def_cfa_offset 32
	popq	%r13
	.cfi_def_cfa_offset 24
	popq	%r14
	.cfi_def_cfa_offset 16
	popq	%r15
	.cfi_def_cfa_offset 8
	ret
.LVL59:
.L22:
	.cfi_restore_state
.LBB95:
.LBB96:
	.file 5 "/usr/include/stdlib.h"
	.loc 5 364 16 view .LVU196
	movq	8(%rsi), %rdi
.LVL60:
	.loc 5 364 16 view .LVU197
	movq	%rsi, %rbx
.LBE96:
.LBE95:
	.loc 1 98 5 is_stmt 1 view .LVU198
.LVL61:
.LBB99:
.LBI95:
	.loc 5 362 1 view .LVU199
.LBB97:
	.loc 5 364 3 view .LVU200
	.loc 5 364 16 is_stmt 0 view .LVU201
	movl	$10, %edx
	xorl	%esi, %esi
.LVL62:
	.loc 5 364 16 view .LVU202
	call	strtol@PLT
.LVL63:
	.loc 5 364 16 view .LVU203
.LBE97:
.LBE99:
.LBB100:
.LBB101:
	movq	16(%rbx), %rdi
	xorl	%esi, %esi
	movl	$10, %edx
.LBE101:
.LBE100:
.LBB104:
.LBB98:
	movq	%rax, %rbp
.LVL64:
	.loc 5 364 16 view .LVU204
.LBE98:
.LBE104:
	.loc 1 99 5 is_stmt 1 view .LVU205
.LBB105:
.LBI100:
	.loc 5 362 1 view .LVU206
.LBB102:
	.loc 5 364 3 view .LVU207
	.loc 5 364 16 is_stmt 0 view .LVU208
	call	strtol@PLT
.LVL65:
	.loc 5 364 16 view .LVU209
.LBE102:
.LBE105:
	.loc 1 100 50 view .LVU210
	movslq	%ebp, %rdi
.LBB106:
.LBB103:
	.loc 5 364 16 view .LVU211
	movq	%rax, 8(%rsp)
.LVL66:
	.loc 5 364 16 view .LVU212
.LBE103:
.LBE106:
	.loc 1 100 5 is_stmt 1 view .LVU213
	.loc 1 99 19 is_stmt 0 view .LVU214
	cltq
.LVL67:
	.loc 1 100 19 view .LVU215
	cqto
	idivq	%rdi
.LVL68:
	.loc 1 104 47 view .LVU216
	salq	$3, %rdi
	.loc 1 100 19 view .LVU217
	movq	%rax, %r12
.LVL69:
	.loc 1 101 5 is_stmt 1 view .LVU218
	.loc 1 104 5 view .LVU219
	.loc 1 104 47 is_stmt 0 view .LVU220
	call	malloc@PLT
.LVL70:
	.loc 1 105 5 view .LVU221
	xorl	%esi, %esi
	leaq	total_hit_mutex(%rip), %rdi
	.loc 1 104 47 view .LVU222
	movq	%rax, %r14
.LVL71:
	.loc 1 105 5 is_stmt 1 view .LVU223
	call	pthread_mutex_init@PLT
.LVL72:
	.loc 1 106 5 view .LVU224
.LBB107:
	.loc 1 106 10 view .LVU225
	.loc 1 106 20 view .LVU226
	testl	%ebp, %ebp
	jle	.L27
	.loc 1 106 20 is_stmt 0 view .LVU227
	leal	-1(%rbp), %eax
	movq	%r14, %rbx
.LVL73:
	.loc 1 106 20 view .LVU228
	leaq	single_thread_estimation_SIMD(%rip), %r13
	.loc 1 107 9 view .LVU229
	movq	%r14, %r15
	leaq	8(%r14,%rax,8), %rbp
.LVL74:
	.p2align 4,,10
	.p2align 3
.L25:
	.loc 1 107 9 is_stmt 1 discriminator 3 view .LVU230
	movq	%r15, %rdi
	movq	%r12, %rcx
	movq	%r13, %rdx
	xorl	%esi, %esi
	call	pthread_create@PLT
.LVL75:
	.loc 1 106 34 discriminator 3 view .LVU231
	.loc 1 106 20 discriminator 3 view .LVU232
	addq	$8, %r15
.LVL76:
	.loc 1 106 20 is_stmt 0 discriminator 3 view .LVU233
	cmpq	%rbp, %r15
	jne	.L25
.LVL77:
	.p2align 4,,10
	.p2align 3
.L26:
	.loc 1 106 20 discriminator 3 view .LVU234
.LBE107:
.LBB108:
	.loc 1 112 9 is_stmt 1 discriminator 3 view .LVU235
	movq	(%rbx), %rdi
	xorl	%esi, %esi
	.loc 1 111 20 is_stmt 0 discriminator 3 view .LVU236
	addq	$8, %rbx
.LVL78:
	.loc 1 112 9 discriminator 3 view .LVU237
	call	pthread_join@PLT
.LVL79:
	.loc 1 111 34 is_stmt 1 discriminator 3 view .LVU238
	.loc 1 111 20 discriminator 3 view .LVU239
	cmpq	%rbp, %rbx
	jne	.L26
.LVL80:
.L27:
	.loc 1 111 20 is_stmt 0 discriminator 3 view .LVU240
.LBE108:
	.loc 1 115 5 is_stmt 1 view .LVU241
	.loc 1 116 5 view .LVU242
.LBB109:
.LBI109:
	.loc 4 110 1 view .LVU243
.LBB110:
	.loc 4 112 3 view .LVU244
.LBE110:
.LBE109:
	.loc 1 115 16 is_stmt 0 view .LVU245
	movq	total_hit(%rip), %rax
	vxorps	%xmm1, %xmm1, %xmm1
.LBB114:
.LBB111:
	.loc 4 112 10 view .LVU246
	movl	$1, %edi
	leaq	.LC6(%rip), %rsi
.LBE111:
.LBE114:
	.loc 1 115 16 view .LVU247
	salq	$2, %rax
	.loc 1 115 28 view .LVU248
	vcvtsi2sdq	%rax, %xmm1, %xmm0
.LBB115:
.LBB112:
	.loc 4 112 10 view .LVU249
	movl	$1, %eax
.LBE112:
.LBE115:
	.loc 1 115 31 view .LVU250
	vcvtsi2sdl	8(%rsp), %xmm1, %xmm1
	.loc 1 115 12 view .LVU251
	vdivsd	%xmm1, %xmm0, %xmm0
.LBB116:
.LBB113:
	.loc 4 112 10 view .LVU252
	call	__printf_chk@PLT
.LVL81:
	.loc 4 112 10 view .LVU253
.LBE113:
.LBE116:
	.loc 1 118 5 is_stmt 1 view .LVU254
	leaq	total_hit_mutex(%rip), %rdi
	call	pthread_mutex_destroy@PLT
.LVL82:
	.loc 1 119 5 view .LVU255
	movq	%r14, %rdi
	call	free@PLT
.LVL83:
	xorl	%eax, %eax
	jmp	.L21
	.cfi_endproc
.LFE5701:
	.size	main, .-main
	.globl	total_hit
	.bss
	.align 8
	.type	total_hit, @object
	.size	total_hit, 8
total_hit:
	.zero	8
	.globl	total_hit_mutex
	.align 32
	.type	total_hit_mutex, @object
	.size	total_hit_mutex, 40
total_hit_mutex:
	.zero	40
	.section	.rodata.cst32,"aM",@progbits,32
	.align 32
.LC0:
	.long	805306368
	.long	805306368
	.long	805306368
	.long	805306368
	.long	805306368
	.long	805306368
	.long	805306368
	.long	805306368
	.align 32
.LC1:
	.long	1065353216
	.long	1065353216
	.long	1065353216
	.long	1065353216
	.long	1065353216
	.long	1065353216
	.long	1065353216
	.long	1065353216
	.section	.rodata.cst8,"aM",@progbits,8
	.align 8
.LC2:
	.long	-4194304
	.long	1105199103
	.align 8
.LC3:
	.long	0
	.long	1072693248
	.text
.Letext0:
	.file 6 "/usr/lib/gcc/x86_64-linux-gnu/11/include/stddef.h"
	.file 7 "/usr/include/x86_64-linux-gnu/bits/types.h"
	.file 8 "/usr/include/x86_64-linux-gnu/bits/types/time_t.h"
	.file 9 "/usr/include/x86_64-linux-gnu/bits/thread-shared-types.h"
	.file 10 "/usr/include/x86_64-linux-gnu/bits/struct_mutex.h"
	.file 11 "/usr/include/x86_64-linux-gnu/bits/pthreadtypes.h"
	.file 12 "/usr/include/x86_64-linux-gnu/bits/stdint-uintn.h"
	.file 13 "SIMDxorshift/include/simdxorshift128plus.h"
	.file 14 "/usr/include/pthread.h"
	.file 15 "/usr/include/time.h"
	.file 16 "<built-in>"
	.section	.note.GNU-stack,"",@progbits
	.section	.note.gnu.property,"a"
	.align 8
	.long	1f - 0f
	.long	4f - 1f
	.long	5
0:
	.string	"GNU"
1:
	.align 8
	.long	0xc0000002
	.long	3f - 2f
2:
	.long	0x3
3:
	.align 8
4:
