	.file	"simdxorshift128plus.c"
	.text
.Ltext0:
	.file 0 "/home/sam/Desktop/2022-Fall-Parallel-Programming/HW2/part1" "SIMDxorshift/src//simdxorshift128plus.c"
	.p2align 4
	.globl	avx_xorshift128plus_init
	.type	avx_xorshift128plus_init, @function
avx_xorshift128plus_init:
.LVL0:
.LFB5700:
	.file 1 "SIMDxorshift/src//simdxorshift128plus.c"
	.loc 1 34 35 view -0
	.cfi_startproc
	.loc 1 34 35 is_stmt 0 view .LVU1
	endbr64
	pushq	%rbp
	.cfi_def_cfa_offset 16
	.cfi_offset 6, -16
	movq	%rsi, %r9
	movq	%rdx, %r8
.LBB174:
.LBB175:
	.loc 1 20 11 view .LVU2
	xorl	%ecx, %ecx
.LBB176:
.LBB177:
	.loc 1 23 8 view .LVU3
	movabsq	$-8476663413540573697, %r11
.LBE177:
.LBE176:
	.loc 1 19 11 view .LVU4
	xorl	%r10d, %r10d
.LBE175:
.LBE174:
	.loc 1 34 35 view .LVU5
	movq	%rsp, %rbp
	.cfi_def_cfa_register 6
	andq	$-32, %rsp
	subq	$96, %rsp
	.loc 1 34 35 view .LVU6
	movq	%fs:40, %rax
	movq	%rax, 88(%rsp)
	xorl	%eax, %eax
	.loc 1 35 2 is_stmt 1 view .LVU7
	.loc 1 36 2 view .LVU8
	.loc 1 37 2 view .LVU9
	.loc 1 38 8 is_stmt 0 view .LVU10
	movq	%rsi, 48(%rsp)
.LBB197:
.LBB194:
.LBB192:
.LBB190:
	.loc 1 22 12 view .LVU11
	xorl	%esi, %esi
.LVL1:
	.loc 1 22 12 view .LVU12
.LBE190:
.LBE192:
.LBE194:
.LBE197:
	.loc 1 37 8 view .LVU13
	movq	%rdi, 16(%rsp)
	.loc 1 38 2 is_stmt 1 view .LVU14
	.loc 1 39 2 view .LVU15
.LVL2:
.LBB198:
.LBI174:
	.loc 1 15 13 view .LVU16
.LBB195:
	.loc 1 18 2 view .LVU17
	.loc 1 19 2 view .LVU18
	.loc 1 20 2 view .LVU19
	.loc 1 21 2 view .LVU20
.LBB193:
	.loc 1 21 7 view .LVU21
	.loc 1 21 29 view .LVU22
.LBB191:
	.loc 1 22 21 view .LVU23
	jmp	.L3
.LVL3:
	.p2align 4,,10
	.p2align 3
.L15:
.LBB178:
.LBB179:
	.loc 1 11 30 is_stmt 0 view .LVU24
	movq	%rax, %r9
.LVL4:
.L3:
	.loc 1 11 30 view .LVU25
.LBE179:
.LBE178:
	.loc 1 23 4 is_stmt 1 view .LVU26
	.loc 1 23 7 is_stmt 0 view .LVU27
	btq	%rsi, %r11
	jnc	.L2
	.loc 1 24 5 is_stmt 1 view .LVU28
	.loc 1 24 8 is_stmt 0 view .LVU29
	xorq	%rdi, %r10
.LVL5:
	.loc 1 25 5 is_stmt 1 view .LVU30
	.loc 1 25 8 is_stmt 0 view .LVU31
	xorq	%r9, %rcx
.LVL6:
.L2:
	.loc 1 27 4 is_stmt 1 view .LVU32
.LBB185:
.LBI178:
	.loc 1 6 13 view .LVU33
.LBB180:
	.loc 1 7 2 view .LVU34
	.loc 1 8 2 view .LVU35
	.loc 1 9 2 view .LVU36
	.loc 1 10 2 view .LVU37
	.loc 1 10 11 is_stmt 0 view .LVU38
	movq	%rdi, %rdx
	.loc 1 11 36 view .LVU39
	movq	%r9, %rax
.LBE180:
.LBE185:
	.loc 1 22 28 view .LVU40
	addl	$1, %esi
.LVL7:
.LBB186:
.LBB181:
	.loc 1 10 11 view .LVU41
	salq	$23, %rdx
	.loc 1 11 36 view .LVU42
	shrq	$5, %rax
	.loc 1 10 5 view .LVU43
	xorq	%rdi, %rdx
.LVL8:
	.loc 1 11 2 is_stmt 1 view .LVU44
	movq	%r9, %rdi
	.loc 1 11 30 is_stmt 0 view .LVU45
	xorq	%rdx, %rax
	.loc 1 11 23 view .LVU46
	shrq	$18, %rdx
.LVL9:
	.loc 1 11 30 view .LVU47
	xorq	%r9, %rax
	xorq	%rdx, %rax
.LVL10:
	.loc 1 11 30 view .LVU48
.LBE181:
.LBE186:
	.loc 1 22 28 is_stmt 1 view .LVU49
	.loc 1 22 21 view .LVU50
	cmpl	$64, %esi
	jne	.L15
.LVL11:
	.loc 1 23 8 is_stmt 0 view .LVU51
	movabsq	$1305993406145048470, %r11
	.loc 1 22 12 view .LVU52
	xorl	%edi, %edi
.LVL12:
	.loc 1 22 12 view .LVU53
	jmp	.L5
.LVL13:
	.p2align 4,,10
	.p2align 3
.L16:
.LBB187:
.LBB182:
	.loc 1 11 30 view .LVU54
	movq	%rdx, %rax
.LVL14:
.L5:
	.loc 1 11 30 view .LVU55
.LBE182:
.LBE187:
	.loc 1 23 4 is_stmt 1 view .LVU56
	.loc 1 23 7 is_stmt 0 view .LVU57
	btq	%rdi, %r11
	jnc	.L4
	.loc 1 24 5 is_stmt 1 view .LVU58
	.loc 1 24 8 is_stmt 0 view .LVU59
	xorq	%r9, %r10
.LVL15:
	.loc 1 25 5 is_stmt 1 view .LVU60
	.loc 1 25 8 is_stmt 0 view .LVU61
	xorq	%rax, %rcx
.LVL16:
.L4:
	.loc 1 27 4 is_stmt 1 view .LVU62
.LBB188:
	.loc 1 6 13 view .LVU63
.LBB183:
	.loc 1 7 2 view .LVU64
	.loc 1 8 2 view .LVU65
	.loc 1 9 2 view .LVU66
	.loc 1 10 2 view .LVU67
	.loc 1 10 11 is_stmt 0 view .LVU68
	movq	%r9, %rsi
	.loc 1 11 36 view .LVU69
	movq	%rax, %rdx
.LBE183:
.LBE188:
	.loc 1 22 28 view .LVU70
	addl	$1, %edi
.LVL17:
.LBB189:
.LBB184:
	.loc 1 10 11 view .LVU71
	salq	$23, %rsi
	.loc 1 11 36 view .LVU72
	shrq	$5, %rdx
	.loc 1 10 5 view .LVU73
	xorq	%r9, %rsi
.LVL18:
	.loc 1 11 2 is_stmt 1 view .LVU74
	movq	%rax, %r9
	.loc 1 11 30 is_stmt 0 view .LVU75
	xorq	%rsi, %rdx
	.loc 1 11 23 view .LVU76
	shrq	$18, %rsi
.LVL19:
	.loc 1 11 30 view .LVU77
	xorq	%rax, %rdx
	xorq	%rsi, %rdx
.LVL20:
	.loc 1 11 30 view .LVU78
.LBE184:
.LBE189:
	.loc 1 22 28 is_stmt 1 view .LVU79
	.loc 1 22 21 view .LVU80
	cmpl	$64, %edi
	jne	.L16
	.loc 1 22 21 is_stmt 0 view .LVU81
.LBE191:
	.loc 1 21 62 is_stmt 1 view .LVU82
.LVL21:
	.loc 1 21 29 view .LVU83
.LBE193:
	.loc 1 29 2 view .LVU84
	.loc 1 29 13 is_stmt 0 view .LVU85
	movq	%r10, 24(%rsp)
	.loc 1 30 2 is_stmt 1 view .LVU86
.LBE195:
.LBE198:
.LBB199:
.LBB200:
	.loc 1 20 11 is_stmt 0 view .LVU87
	xorl	%edx, %edx
.LVL22:
	.loc 1 19 11 view .LVU88
	xorl	%r9d, %r9d
.LBB201:
.LBB202:
	.loc 1 22 12 view .LVU89
	xorl	%edi, %edi
.LVL23:
	.loc 1 23 8 view .LVU90
	movabsq	$-8476663413540573697, %r11
.LBE202:
.LBE201:
.LBE200:
.LBE199:
.LBB219:
.LBB196:
	.loc 1 30 13 view .LVU91
	movq	%rcx, 56(%rsp)
.LVL24:
	.loc 1 30 13 view .LVU92
.LBE196:
.LBE219:
	.loc 1 40 2 is_stmt 1 view .LVU93
.LBB220:
.LBI199:
	.loc 1 15 13 view .LVU94
.LBB217:
.LBB216:
	.loc 1 21 29 view .LVU95
.LBB215:
	.loc 1 22 21 view .LVU96
	jmp	.L7
.LVL25:
	.p2align 4,,10
	.p2align 3
.L17:
.LBB203:
.LBB204:
	.loc 1 11 30 is_stmt 0 view .LVU97
	movq	%rax, %rcx
.LVL26:
.L7:
	.loc 1 11 30 view .LVU98
.LBE204:
.LBE203:
	.loc 1 23 4 is_stmt 1 view .LVU99
	.loc 1 23 7 is_stmt 0 view .LVU100
	btq	%rdi, %r11
	jnc	.L6
	.loc 1 24 5 is_stmt 1 view .LVU101
	.loc 1 24 8 is_stmt 0 view .LVU102
	xorq	%r10, %r9
.LVL27:
	.loc 1 25 5 is_stmt 1 view .LVU103
	.loc 1 25 8 is_stmt 0 view .LVU104
	xorq	%rcx, %rdx
.LVL28:
.L6:
	.loc 1 27 4 is_stmt 1 view .LVU105
.LBB210:
.LBI203:
	.loc 1 6 13 view .LVU106
.LBB205:
	.loc 1 7 2 view .LVU107
	.loc 1 8 2 view .LVU108
	.loc 1 9 2 view .LVU109
	.loc 1 10 2 view .LVU110
	.loc 1 10 11 is_stmt 0 view .LVU111
	movq	%r10, %rsi
	.loc 1 11 36 view .LVU112
	movq	%rcx, %rax
.LBE205:
.LBE210:
	.loc 1 22 28 view .LVU113
	addl	$1, %edi
.LVL29:
.LBB211:
.LBB206:
	.loc 1 10 11 view .LVU114
	salq	$23, %rsi
	.loc 1 11 36 view .LVU115
	shrq	$5, %rax
	.loc 1 10 5 view .LVU116
	xorq	%r10, %rsi
.LVL30:
	.loc 1 11 2 is_stmt 1 view .LVU117
	movq	%rcx, %r10
	.loc 1 11 30 is_stmt 0 view .LVU118
	xorq	%rsi, %rax
	.loc 1 11 23 view .LVU119
	shrq	$18, %rsi
.LVL31:
	.loc 1 11 30 view .LVU120
	xorq	%rcx, %rax
	xorq	%rsi, %rax
.LVL32:
	.loc 1 11 30 view .LVU121
.LBE206:
.LBE211:
	.loc 1 22 28 is_stmt 1 view .LVU122
	.loc 1 22 21 view .LVU123
	cmpl	$64, %edi
	jne	.L17
	.loc 1 23 8 is_stmt 0 view .LVU124
	movabsq	$1305993406145048470, %r10
	.loc 1 22 12 view .LVU125
	xorl	%edi, %edi
.LVL33:
	.loc 1 22 12 view .LVU126
	jmp	.L9
.LVL34:
	.p2align 4,,10
	.p2align 3
.L18:
.LBB212:
.LBB207:
	.loc 1 11 30 view .LVU127
	movq	%rsi, %rax
.LVL35:
.L9:
	.loc 1 11 30 view .LVU128
.LBE207:
.LBE212:
	.loc 1 23 4 is_stmt 1 view .LVU129
	.loc 1 23 7 is_stmt 0 view .LVU130
	btq	%rdi, %r10
	jnc	.L8
	.loc 1 24 5 is_stmt 1 view .LVU131
	.loc 1 24 8 is_stmt 0 view .LVU132
	xorq	%rcx, %r9
.LVL36:
	.loc 1 25 5 is_stmt 1 view .LVU133
	.loc 1 25 8 is_stmt 0 view .LVU134
	xorq	%rax, %rdx
.LVL37:
.L8:
	.loc 1 27 4 is_stmt 1 view .LVU135
.LBB213:
	.loc 1 6 13 view .LVU136
.LBB208:
	.loc 1 7 2 view .LVU137
	.loc 1 8 2 view .LVU138
	.loc 1 9 2 view .LVU139
	.loc 1 10 2 view .LVU140
	.loc 1 10 11 is_stmt 0 view .LVU141
	movq	%rcx, %rsi
.LBE208:
.LBE213:
	.loc 1 22 28 view .LVU142
	addl	$1, %edi
.LVL38:
.LBB214:
.LBB209:
	.loc 1 10 11 view .LVU143
	salq	$23, %rsi
	.loc 1 10 5 view .LVU144
	xorq	%rcx, %rsi
.LVL39:
	.loc 1 11 2 is_stmt 1 view .LVU145
	.loc 1 11 36 is_stmt 0 view .LVU146
	movq	%rax, %rcx
	shrq	$5, %rcx
	.loc 1 11 30 view .LVU147
	xorq	%rsi, %rcx
	.loc 1 11 23 view .LVU148
	shrq	$18, %rsi
.LVL40:
	.loc 1 11 30 view .LVU149
	xorq	%rax, %rcx
	xorq	%rcx, %rsi
.LVL41:
	.loc 1 11 30 view .LVU150
.LBE209:
.LBE214:
	.loc 1 22 28 is_stmt 1 view .LVU151
	.loc 1 22 21 view .LVU152
	movq	%rax, %rcx
	cmpl	$64, %edi
	jne	.L18
	.loc 1 22 21 is_stmt 0 view .LVU153
.LBE215:
	.loc 1 21 62 is_stmt 1 view .LVU154
.LVL42:
	.loc 1 21 29 view .LVU155
.LBE216:
	.loc 1 29 2 view .LVU156
	.loc 1 29 13 is_stmt 0 view .LVU157
	movq	%r9, 32(%rsp)
	.loc 1 30 2 is_stmt 1 view .LVU158
.LBE217:
.LBE220:
.LBB221:
.LBB222:
	.loc 1 20 11 is_stmt 0 view .LVU159
	xorl	%esi, %esi
.LVL43:
	.loc 1 19 11 view .LVU160
	xorl	%edi, %edi
.LVL44:
.LBB223:
.LBB224:
	.loc 1 22 12 view .LVU161
	xorl	%r10d, %r10d
	.loc 1 23 8 view .LVU162
	movabsq	$-8476663413540573697, %r11
.LBE224:
.LBE223:
.LBE222:
.LBE221:
.LBB241:
.LBB218:
	.loc 1 30 13 view .LVU163
	movq	%rdx, 64(%rsp)
.LVL45:
	.loc 1 30 13 view .LVU164
.LBE218:
.LBE241:
	.loc 1 41 2 is_stmt 1 view .LVU165
.LBB242:
.LBI221:
	.loc 1 15 13 view .LVU166
.LBB239:
.LBB238:
	.loc 1 21 29 view .LVU167
.LBB237:
	.loc 1 22 21 view .LVU168
	jmp	.L11
.LVL46:
	.p2align 4,,10
	.p2align 3
.L19:
.LBB225:
.LBB226:
	.loc 1 11 30 is_stmt 0 view .LVU169
	movq	%rax, %rdx
.LVL47:
.L11:
	.loc 1 11 30 view .LVU170
.LBE226:
.LBE225:
	.loc 1 23 4 is_stmt 1 view .LVU171
	.loc 1 23 7 is_stmt 0 view .LVU172
	btq	%r10, %r11
	jnc	.L10
	.loc 1 24 5 is_stmt 1 view .LVU173
	.loc 1 24 8 is_stmt 0 view .LVU174
	xorq	%r9, %rdi
.LVL48:
	.loc 1 25 5 is_stmt 1 view .LVU175
	.loc 1 25 8 is_stmt 0 view .LVU176
	xorq	%rdx, %rsi
.LVL49:
.L10:
	.loc 1 27 4 is_stmt 1 view .LVU177
.LBB232:
.LBI225:
	.loc 1 6 13 view .LVU178
.LBB227:
	.loc 1 7 2 view .LVU179
	.loc 1 8 2 view .LVU180
	.loc 1 9 2 view .LVU181
	.loc 1 10 2 view .LVU182
	.loc 1 10 11 is_stmt 0 view .LVU183
	movq	%r9, %rcx
	.loc 1 11 36 view .LVU184
	movq	%rdx, %rax
.LBE227:
.LBE232:
	.loc 1 22 28 view .LVU185
	addl	$1, %r10d
.LVL50:
.LBB233:
.LBB228:
	.loc 1 10 11 view .LVU186
	salq	$23, %rcx
	.loc 1 11 36 view .LVU187
	shrq	$5, %rax
	.loc 1 10 5 view .LVU188
	xorq	%r9, %rcx
.LVL51:
	.loc 1 11 2 is_stmt 1 view .LVU189
	movq	%rdx, %r9
	.loc 1 11 30 is_stmt 0 view .LVU190
	xorq	%rcx, %rax
	.loc 1 11 23 view .LVU191
	shrq	$18, %rcx
.LVL52:
	.loc 1 11 30 view .LVU192
	xorq	%rdx, %rax
	xorq	%rcx, %rax
.LVL53:
	.loc 1 11 30 view .LVU193
.LBE228:
.LBE233:
	.loc 1 22 28 is_stmt 1 view .LVU194
	.loc 1 22 21 view .LVU195
	cmpl	$64, %r10d
	jne	.L19
	.loc 1 23 8 is_stmt 0 view .LVU196
	movabsq	$1305993406145048470, %r10
.LVL54:
	.loc 1 22 12 view .LVU197
	xorl	%r9d, %r9d
	jmp	.L13
.LVL55:
	.p2align 4,,10
	.p2align 3
.L20:
.LBB234:
.LBB229:
	.loc 1 11 30 view .LVU198
	movq	%rcx, %rax
.LVL56:
.L13:
	.loc 1 11 30 view .LVU199
.LBE229:
.LBE234:
	.loc 1 23 4 is_stmt 1 view .LVU200
	.loc 1 23 7 is_stmt 0 view .LVU201
	btq	%r9, %r10
	jnc	.L12
	.loc 1 24 5 is_stmt 1 view .LVU202
	.loc 1 24 8 is_stmt 0 view .LVU203
	xorq	%rdx, %rdi
.LVL57:
	.loc 1 25 5 is_stmt 1 view .LVU204
	.loc 1 25 8 is_stmt 0 view .LVU205
	xorq	%rax, %rsi
.LVL58:
.L12:
	.loc 1 27 4 is_stmt 1 view .LVU206
.LBB235:
	.loc 1 6 13 view .LVU207
.LBB230:
	.loc 1 7 2 view .LVU208
	.loc 1 8 2 view .LVU209
	.loc 1 9 2 view .LVU210
	.loc 1 10 2 view .LVU211
	.loc 1 10 11 is_stmt 0 view .LVU212
	movq	%rdx, %rcx
.LBE230:
.LBE235:
	.loc 1 22 28 view .LVU213
	addl	$1, %r9d
.LVL59:
.LBB236:
.LBB231:
	.loc 1 10 11 view .LVU214
	salq	$23, %rcx
	.loc 1 10 5 view .LVU215
	xorq	%rdx, %rcx
.LVL60:
	.loc 1 11 2 is_stmt 1 view .LVU216
	.loc 1 11 36 is_stmt 0 view .LVU217
	movq	%rax, %rdx
	shrq	$5, %rdx
	.loc 1 11 30 view .LVU218
	xorq	%rcx, %rdx
	.loc 1 11 23 view .LVU219
	shrq	$18, %rcx
.LVL61:
	.loc 1 11 30 view .LVU220
	xorq	%rax, %rdx
	xorq	%rdx, %rcx
.LVL62:
	.loc 1 11 30 view .LVU221
.LBE231:
.LBE236:
	.loc 1 22 28 is_stmt 1 view .LVU222
	.loc 1 22 21 view .LVU223
	movq	%rax, %rdx
	cmpl	$64, %r9d
	jne	.L20
	.loc 1 22 21 is_stmt 0 view .LVU224
.LBE237:
	.loc 1 21 62 is_stmt 1 view .LVU225
.LVL63:
	.loc 1 21 29 view .LVU226
.LBE238:
	.loc 1 29 2 view .LVU227
	.loc 1 29 13 is_stmt 0 view .LVU228
	movq	%rdi, 40(%rsp)
	.loc 1 30 2 is_stmt 1 view .LVU229
.LBE239:
.LBE242:
	.loc 1 42 13 is_stmt 0 view .LVU230
	vmovdqu	16(%rsp), %ymm0
.LBB243:
.LBB240:
	.loc 1 30 13 view .LVU231
	movq	%rsi, 72(%rsp)
.LVL64:
	.loc 1 30 13 view .LVU232
.LBE240:
.LBE243:
	.loc 1 42 2 is_stmt 1 view .LVU233
.LBB244:
.LBI244:
	.file 2 "/usr/lib/gcc/x86_64-linux-gnu/11/include/avxintrin.h"
	.loc 2 927 1 view .LVU234
.LBB245:
	.loc 2 929 3 view .LVU235
	.loc 2 929 3 is_stmt 0 view .LVU236
.LBE245:
.LBE244:
	.loc 1 43 13 view .LVU237
	vmovdqu	48(%rsp), %ymm1
	.loc 1 42 13 view .LVU238
	vmovdqa	%ymm0, (%r8)
	.loc 1 43 2 is_stmt 1 view .LVU239
.LVL65:
.LBB246:
.LBI246:
	.loc 2 927 1 view .LVU240
.LBB247:
	.loc 2 929 3 view .LVU241
	.loc 2 929 3 is_stmt 0 view .LVU242
.LBE247:
.LBE246:
	.loc 1 43 13 view .LVU243
	vmovdqa	%ymm1, 32(%r8)
	.loc 1 44 1 view .LVU244
	movq	88(%rsp), %rax
	subq	%fs:40, %rax
	jne	.L42
	vzeroupper
	leave
	.cfi_remember_state
	.cfi_def_cfa 7, 8
.LVL66:
	.loc 1 44 1 view .LVU245
	ret
.LVL67:
.L42:
	.cfi_restore_state
	.loc 1 44 1 view .LVU246
	vzeroupper
	call	__stack_chk_fail@PLT
.LVL68:
	.loc 1 44 1 view .LVU247
	.cfi_endproc
.LFE5700:
	.size	avx_xorshift128plus_init, .-avx_xorshift128plus_init
	.p2align 4
	.globl	avx_xorshift128plus
	.type	avx_xorshift128plus, @function
avx_xorshift128plus:
.LVL69:
.LFB5701:
	.loc 1 49 61 is_stmt 1 view -0
	.cfi_startproc
	.loc 1 49 61 is_stmt 0 view .LVU249
	endbr64
	.loc 1 50 2 is_stmt 1 view .LVU250
.LVL70:
	.loc 1 51 2 view .LVU251
	.loc 1 51 16 is_stmt 0 view .LVU252
	vmovdqa	32(%rdi), %ymm1
.LVL71:
	.loc 1 52 2 is_stmt 1 view .LVU253
.LBB248:
.LBB249:
	.file 3 "/usr/lib/gcc/x86_64-linux-gnu/11/include/avx2intrin.h"
	.loc 3 698 19 is_stmt 0 view .LVU254
	vpsllq	$23, %ymm1, %ymm2
.LBE249:
.LBE248:
.LBB251:
.LBB252:
	.loc 3 789 19 view .LVU255
	vpsrlq	$5, %ymm1, %ymm3
.LBE252:
.LBE251:
	.loc 1 52 13 view .LVU256
	vmovdqa	%ymm1, (%rdi)
.LVL72:
	.loc 1 53 2 is_stmt 1 view .LVU257
.LBB254:
.LBI248:
	.loc 3 696 1 view .LVU258
.LBB250:
	.loc 3 698 3 view .LVU259
	.loc 3 698 3 is_stmt 0 view .LVU260
.LBE250:
.LBE254:
.LBB255:
.LBI255:
	.loc 3 913 1 is_stmt 1 view .LVU261
.LBB256:
	.loc 3 915 3 view .LVU262
	.loc 3 915 3 is_stmt 0 view .LVU263
.LBE256:
.LBE255:
	.loc 1 54 2 is_stmt 1 view .LVU264
.LBB258:
.LBI251:
	.loc 3 787 1 view .LVU265
.LBB253:
	.loc 3 789 3 view .LVU266
	.loc 3 789 3 is_stmt 0 view .LVU267
.LBE253:
.LBE258:
.LBB259:
.LBI259:
	.loc 3 787 1 is_stmt 1 view .LVU268
.LBB260:
	.loc 3 789 3 view .LVU269
.LBE260:
.LBE259:
.LBB262:
.LBB257:
	.loc 3 915 33 is_stmt 0 view .LVU270
	vpxor	%ymm2, %ymm1, %ymm0
.LVL73:
	.loc 3 915 33 view .LVU271
.LBE257:
.LBE262:
.LBB263:
.LBB261:
	.loc 3 789 19 view .LVU272
	vpsrlq	$18, %ymm0, %ymm0
.LVL74:
	.loc 3 789 19 view .LVU273
.LBE261:
.LBE263:
.LBB264:
.LBI264:
	.loc 3 913 1 is_stmt 1 view .LVU274
.LBB265:
	.loc 3 915 3 view .LVU275
	.loc 3 915 3 is_stmt 0 view .LVU276
.LBE265:
.LBE264:
.LBB267:
.LBI267:
	.loc 3 913 1 is_stmt 1 view .LVU277
.LBB268:
	.loc 3 915 3 view .LVU278
.LBE268:
.LBE267:
.LBB270:
.LBB266:
	.loc 3 915 33 is_stmt 0 view .LVU279
	vpxor	%ymm2, %ymm0, %ymm0
.LVL75:
	.loc 3 915 33 view .LVU280
.LBE266:
.LBE270:
.LBB271:
.LBB269:
	vpxor	%ymm3, %ymm0, %ymm0
.LVL76:
	.loc 3 915 33 view .LVU281
.LBE269:
.LBE271:
	.loc 1 54 13 view .LVU282
	vmovdqa	%ymm0, 32(%rdi)
	.loc 1 57 2 is_stmt 1 view .LVU283
.LVL77:
.LBB272:
.LBI272:
	.loc 3 126 1 view .LVU284
.LBB273:
	.loc 3 128 3 view .LVU285
	.loc 3 128 33 is_stmt 0 view .LVU286
	vpaddq	%ymm1, %ymm0, %ymm0
.LBE273:
.LBE272:
	.loc 1 58 1 view .LVU287
	ret
	.cfi_endproc
.LFE5701:
	.size	avx_xorshift128plus, .-avx_xorshift128plus
	.p2align 4
	.globl	avx_xorshift128plus_jump
	.type	avx_xorshift128plus_jump, @function
avx_xorshift128plus_jump:
.LVL78:
.LFB5702:
	.loc 1 103 64 is_stmt 1 view -0
	.cfi_startproc
	.loc 1 103 64 is_stmt 0 view .LVU289
	endbr64
	pushq	%rbp
	.cfi_def_cfa_offset 16
	.cfi_offset 6, -16
	movq	%rdi, %rsi
.LBB314:
.LBB315:
	.loc 1 20 11 view .LVU290
	xorl	%edx, %edx
	.loc 1 19 11 view .LVU291
	xorl	%r9d, %r9d
.LBB316:
.LBB317:
	.loc 1 23 8 view .LVU292
	movabsq	$-8476663413540573697, %r11
.LBE317:
.LBE316:
.LBE315:
.LBE314:
	.loc 1 103 64 view .LVU293
	movq	%rsp, %rbp
	.cfi_def_cfa_register 6
	andq	$-32, %rsp
	subq	$96, %rsp
.LBB337:
.LBB338:
.LBB339:
.LBB340:
	.loc 2 532 20 view .LVU294
	vmovdqa	(%rdi), %ymm1
.LBE340:
.LBE339:
.LBE338:
.LBE337:
.LBB346:
.LBB347:
.LBB348:
.LBB349:
	vmovdqa	32(%rdi), %ymm2
.LBE349:
.LBE348:
.LBE347:
.LBE346:
.LBB355:
.LBB334:
.LBB332:
.LBB330:
	.loc 1 22 12 view .LVU295
	xorl	%edi, %edi
.LVL79:
	.loc 1 22 12 view .LVU296
.LBE330:
.LBE332:
.LBE334:
.LBE355:
	.loc 1 103 64 view .LVU297
	movq	%fs:40, %rax
	movq	%rax, 88(%rsp)
	xorl	%eax, %eax
	.loc 1 104 2 is_stmt 1 view .LVU298
	.loc 1 105 2 view .LVU299
	.loc 1 106 2 view .LVU300
.LVL80:
.LBB356:
.LBI337:
	.loc 2 558 1 view .LVU301
.LBB345:
	.loc 2 560 3 view .LVU302
.LBB342:
.LBI339:
	.loc 2 530 1 view .LVU303
.LBB341:
	.loc 2 532 3 view .LVU304
	.loc 2 532 20 is_stmt 0 view .LVU305
	vextracti128	$0x1, %ymm1, %xmm0
.LVL81:
	.loc 2 532 20 view .LVU306
.LBE341:
.LBE342:
	.loc 2 561 3 is_stmt 1 view .LVU307
.LBB343:
.LBI343:
	.file 4 "/usr/lib/gcc/x86_64-linux-gnu/11/include/smmintrin.h"
	.loc 4 454 1 view .LVU308
.LBB344:
	.loc 4 456 3 view .LVU309
	.loc 4 456 10 is_stmt 0 view .LVU310
	vpextrq	$1, %xmm0, %r10
.LVL82:
	.loc 4 456 10 view .LVU311
.LBE344:
.LBE343:
.LBE345:
.LBE356:
	.loc 1 107 2 is_stmt 1 view .LVU312
.LBB357:
.LBI346:
	.loc 2 558 1 view .LVU313
.LBB354:
	.loc 2 560 3 view .LVU314
.LBB351:
.LBI348:
	.loc 2 530 1 view .LVU315
.LBB350:
	.loc 2 532 3 view .LVU316
	.loc 2 532 20 is_stmt 0 view .LVU317
	vextracti128	$0x1, %ymm2, %xmm0
.LVL83:
	.loc 2 532 20 view .LVU318
.LBE350:
.LBE351:
	.loc 2 561 3 is_stmt 1 view .LVU319
.LBB352:
.LBI352:
	.loc 4 454 1 view .LVU320
.LBB353:
	.loc 4 456 3 view .LVU321
	.loc 4 456 10 is_stmt 0 view .LVU322
	vpextrq	$1, %xmm0, %r8
.LVL84:
	.loc 4 456 10 view .LVU323
.LBE353:
.LBE352:
.LBE354:
.LBE357:
	.loc 1 108 2 is_stmt 1 view .LVU324
.LBB358:
.LBI314:
	.loc 1 15 13 view .LVU325
.LBB335:
	.loc 1 18 2 view .LVU326
	.loc 1 19 2 view .LVU327
	.loc 1 20 2 view .LVU328
	.loc 1 21 2 view .LVU329
.LBB333:
	.loc 1 21 7 view .LVU330
	.loc 1 21 29 view .LVU331
.LBB331:
	.loc 1 22 21 view .LVU332
	jmp	.L46
.LVL85:
	.p2align 4,,10
	.p2align 3
.L62:
.LBB318:
.LBB319:
	.loc 1 11 30 is_stmt 0 view .LVU333
	movq	%rax, %r8
.LVL86:
.L46:
	.loc 1 11 30 view .LVU334
.LBE319:
.LBE318:
	.loc 1 23 4 is_stmt 1 view .LVU335
	.loc 1 23 7 is_stmt 0 view .LVU336
	btq	%rdi, %r11
	jnc	.L45
	.loc 1 24 5 is_stmt 1 view .LVU337
	.loc 1 24 8 is_stmt 0 view .LVU338
	xorq	%r10, %r9
.LVL87:
	.loc 1 25 5 is_stmt 1 view .LVU339
	.loc 1 25 8 is_stmt 0 view .LVU340
	xorq	%r8, %rdx
.LVL88:
.L45:
	.loc 1 27 4 is_stmt 1 view .LVU341
.LBB325:
.LBI318:
	.loc 1 6 13 view .LVU342
.LBB320:
	.loc 1 7 2 view .LVU343
	.loc 1 8 2 view .LVU344
	.loc 1 9 2 view .LVU345
	.loc 1 10 2 view .LVU346
	.loc 1 10 11 is_stmt 0 view .LVU347
	movq	%r10, %rcx
	.loc 1 11 36 view .LVU348
	movq	%r8, %rax
.LBE320:
.LBE325:
	.loc 1 22 28 view .LVU349
	addl	$1, %edi
.LVL89:
.LBB326:
.LBB321:
	.loc 1 10 11 view .LVU350
	salq	$23, %rcx
	.loc 1 11 36 view .LVU351
	shrq	$5, %rax
	.loc 1 10 5 view .LVU352
	xorq	%r10, %rcx
.LVL90:
	.loc 1 11 2 is_stmt 1 view .LVU353
	movq	%r8, %r10
	.loc 1 11 30 is_stmt 0 view .LVU354
	xorq	%rcx, %rax
	.loc 1 11 23 view .LVU355
	shrq	$18, %rcx
.LVL91:
	.loc 1 11 30 view .LVU356
	xorq	%r8, %rax
	xorq	%rcx, %rax
.LVL92:
	.loc 1 11 30 view .LVU357
.LBE321:
.LBE326:
	.loc 1 22 28 is_stmt 1 view .LVU358
	.loc 1 22 21 view .LVU359
	cmpl	$64, %edi
	jne	.L62
	.loc 1 23 8 is_stmt 0 view .LVU360
	movabsq	$1305993406145048470, %r11
	.loc 1 22 12 view .LVU361
	xorl	%r10d, %r10d
	jmp	.L48
.LVL93:
	.p2align 4,,10
	.p2align 3
.L63:
.LBB327:
.LBB322:
	.loc 1 11 30 view .LVU362
	movq	%rcx, %rax
.LVL94:
.L48:
	.loc 1 11 30 view .LVU363
.LBE322:
.LBE327:
	.loc 1 23 4 is_stmt 1 view .LVU364
	.loc 1 23 7 is_stmt 0 view .LVU365
	btq	%r10, %r11
	jnc	.L47
	.loc 1 24 5 is_stmt 1 view .LVU366
	.loc 1 24 8 is_stmt 0 view .LVU367
	xorq	%r8, %r9
.LVL95:
	.loc 1 25 5 is_stmt 1 view .LVU368
	.loc 1 25 8 is_stmt 0 view .LVU369
	xorq	%rax, %rdx
.LVL96:
.L47:
	.loc 1 27 4 is_stmt 1 view .LVU370
.LBB328:
	.loc 1 6 13 view .LVU371
.LBB323:
	.loc 1 7 2 view .LVU372
	.loc 1 8 2 view .LVU373
	.loc 1 9 2 view .LVU374
	.loc 1 10 2 view .LVU375
	.loc 1 10 11 is_stmt 0 view .LVU376
	movq	%r8, %rdi
	.loc 1 11 36 view .LVU377
	movq	%rax, %rcx
.LBE323:
.LBE328:
	.loc 1 22 28 view .LVU378
	addl	$1, %r10d
.LVL97:
.LBB329:
.LBB324:
	.loc 1 10 11 view .LVU379
	salq	$23, %rdi
	.loc 1 11 36 view .LVU380
	shrq	$5, %rcx
	.loc 1 10 5 view .LVU381
	xorq	%r8, %rdi
.LVL98:
	.loc 1 11 2 is_stmt 1 view .LVU382
	movq	%rax, %r8
	.loc 1 11 30 is_stmt 0 view .LVU383
	xorq	%rdi, %rcx
	.loc 1 11 23 view .LVU384
	shrq	$18, %rdi
.LVL99:
	.loc 1 11 30 view .LVU385
	xorq	%rax, %rcx
	xorq	%rdi, %rcx
.LVL100:
	.loc 1 11 30 view .LVU386
.LBE324:
.LBE329:
	.loc 1 22 28 is_stmt 1 view .LVU387
	.loc 1 22 21 view .LVU388
	cmpl	$64, %r10d
	jne	.L63
	.loc 1 22 21 is_stmt 0 view .LVU389
.LBE331:
	.loc 1 21 62 is_stmt 1 view .LVU390
.LVL101:
	.loc 1 21 29 view .LVU391
.LBE333:
	.loc 1 29 2 view .LVU392
	.loc 1 29 13 is_stmt 0 view .LVU393
	movq	%r9, 16(%rsp)
	.loc 1 30 2 is_stmt 1 view .LVU394
.LBE335:
.LBE358:
.LBB359:
.LBB360:
	.loc 1 20 11 is_stmt 0 view .LVU395
	xorl	%ecx, %ecx
.LVL102:
	.loc 1 19 11 view .LVU396
	xorl	%r8d, %r8d
.LBB361:
.LBB362:
	.loc 1 22 12 view .LVU397
	xorl	%r10d, %r10d
.LVL103:
	.loc 1 23 8 view .LVU398
	movabsq	$-8476663413540573697, %r11
.LBE362:
.LBE361:
.LBE360:
.LBE359:
.LBB379:
.LBB336:
	.loc 1 30 13 view .LVU399
	movq	%rdx, 48(%rsp)
.LVL104:
	.loc 1 30 13 view .LVU400
.LBE336:
.LBE379:
	.loc 1 109 2 is_stmt 1 view .LVU401
.LBB380:
.LBI359:
	.loc 1 15 13 view .LVU402
.LBB377:
.LBB376:
	.loc 1 21 29 view .LVU403
.LBB375:
	.loc 1 22 21 view .LVU404
	jmp	.L50
.LVL105:
	.p2align 4,,10
	.p2align 3
.L64:
.LBB363:
.LBB364:
	.loc 1 11 30 is_stmt 0 view .LVU405
	movq	%rax, %rdx
.LVL106:
.L50:
	.loc 1 11 30 view .LVU406
.LBE364:
.LBE363:
	.loc 1 23 4 is_stmt 1 view .LVU407
	.loc 1 23 7 is_stmt 0 view .LVU408
	btq	%r10, %r11
	jnc	.L49
	.loc 1 24 5 is_stmt 1 view .LVU409
	.loc 1 24 8 is_stmt 0 view .LVU410
	xorq	%r9, %r8
.LVL107:
	.loc 1 25 5 is_stmt 1 view .LVU411
	.loc 1 25 8 is_stmt 0 view .LVU412
	xorq	%rdx, %rcx
.LVL108:
.L49:
	.loc 1 27 4 is_stmt 1 view .LVU413
.LBB370:
.LBI363:
	.loc 1 6 13 view .LVU414
.LBB365:
	.loc 1 7 2 view .LVU415
	.loc 1 8 2 view .LVU416
	.loc 1 9 2 view .LVU417
	.loc 1 10 2 view .LVU418
	.loc 1 10 11 is_stmt 0 view .LVU419
	movq	%r9, %rdi
	.loc 1 11 36 view .LVU420
	movq	%rdx, %rax
.LBE365:
.LBE370:
	.loc 1 22 28 view .LVU421
	addl	$1, %r10d
.LVL109:
.LBB371:
.LBB366:
	.loc 1 10 11 view .LVU422
	salq	$23, %rdi
	.loc 1 11 36 view .LVU423
	shrq	$5, %rax
	.loc 1 10 5 view .LVU424
	xorq	%r9, %rdi
.LVL110:
	.loc 1 11 2 is_stmt 1 view .LVU425
	movq	%rdx, %r9
	.loc 1 11 30 is_stmt 0 view .LVU426
	xorq	%rdi, %rax
	.loc 1 11 23 view .LVU427
	shrq	$18, %rdi
.LVL111:
	.loc 1 11 30 view .LVU428
	xorq	%rdx, %rax
	xorq	%rdi, %rax
.LVL112:
	.loc 1 11 30 view .LVU429
.LBE366:
.LBE371:
	.loc 1 22 28 is_stmt 1 view .LVU430
	.loc 1 22 21 view .LVU431
	cmpl	$64, %r10d
	jne	.L64
	.loc 1 23 8 is_stmt 0 view .LVU432
	movabsq	$1305993406145048470, %r10
.LVL113:
	.loc 1 22 12 view .LVU433
	xorl	%r9d, %r9d
	jmp	.L52
.LVL114:
	.p2align 4,,10
	.p2align 3
.L65:
.LBB372:
.LBB367:
	.loc 1 11 30 view .LVU434
	movq	%rdi, %rax
.LVL115:
.L52:
	.loc 1 11 30 view .LVU435
.LBE367:
.LBE372:
	.loc 1 23 4 is_stmt 1 view .LVU436
	.loc 1 23 7 is_stmt 0 view .LVU437
	btq	%r9, %r10
	jnc	.L51
	.loc 1 24 5 is_stmt 1 view .LVU438
	.loc 1 24 8 is_stmt 0 view .LVU439
	xorq	%rdx, %r8
.LVL116:
	.loc 1 25 5 is_stmt 1 view .LVU440
	.loc 1 25 8 is_stmt 0 view .LVU441
	xorq	%rax, %rcx
.LVL117:
.L51:
	.loc 1 27 4 is_stmt 1 view .LVU442
.LBB373:
	.loc 1 6 13 view .LVU443
.LBB368:
	.loc 1 7 2 view .LVU444
	.loc 1 8 2 view .LVU445
	.loc 1 9 2 view .LVU446
	.loc 1 10 2 view .LVU447
	.loc 1 10 11 is_stmt 0 view .LVU448
	movq	%rdx, %rdi
.LBE368:
.LBE373:
	.loc 1 22 28 view .LVU449
	addl	$1, %r9d
.LVL118:
.LBB374:
.LBB369:
	.loc 1 10 11 view .LVU450
	salq	$23, %rdi
	.loc 1 10 5 view .LVU451
	xorq	%rdx, %rdi
.LVL119:
	.loc 1 11 2 is_stmt 1 view .LVU452
	.loc 1 11 36 is_stmt 0 view .LVU453
	movq	%rax, %rdx
	shrq	$5, %rdx
	.loc 1 11 30 view .LVU454
	xorq	%rdi, %rdx
	.loc 1 11 23 view .LVU455
	shrq	$18, %rdi
.LVL120:
	.loc 1 11 30 view .LVU456
	xorq	%rax, %rdx
	xorq	%rdx, %rdi
.LVL121:
	.loc 1 11 30 view .LVU457
.LBE369:
.LBE374:
	.loc 1 22 28 is_stmt 1 view .LVU458
	.loc 1 22 21 view .LVU459
	movq	%rax, %rdx
	cmpl	$64, %r9d
	jne	.L65
	.loc 1 22 21 is_stmt 0 view .LVU460
.LBE375:
	.loc 1 21 62 is_stmt 1 view .LVU461
.LVL122:
	.loc 1 21 29 view .LVU462
.LBE376:
	.loc 1 29 2 view .LVU463
	.loc 1 29 13 is_stmt 0 view .LVU464
	movq	%r8, 24(%rsp)
	.loc 1 30 2 is_stmt 1 view .LVU465
.LBE377:
.LBE380:
.LBB381:
.LBB382:
	.loc 1 20 11 is_stmt 0 view .LVU466
	xorl	%edx, %edx
	.loc 1 19 11 view .LVU467
	xorl	%r9d, %r9d
.LVL123:
.LBB383:
.LBB384:
	.loc 1 22 12 view .LVU468
	xorl	%r10d, %r10d
	.loc 1 23 8 view .LVU469
	movabsq	$-8476663413540573697, %r11
.LBE384:
.LBE383:
.LBE382:
.LBE381:
.LBB401:
.LBB378:
	.loc 1 30 13 view .LVU470
	movq	%rcx, 56(%rsp)
.LVL124:
	.loc 1 30 13 view .LVU471
.LBE378:
.LBE401:
	.loc 1 110 2 is_stmt 1 view .LVU472
.LBB402:
.LBI381:
	.loc 1 15 13 view .LVU473
.LBB399:
.LBB398:
	.loc 1 21 29 view .LVU474
.LBB397:
	.loc 1 22 21 view .LVU475
	jmp	.L54
.LVL125:
	.p2align 4,,10
	.p2align 3
.L66:
.LBB385:
.LBB386:
	.loc 1 11 30 is_stmt 0 view .LVU476
	movq	%rax, %rcx
.LVL126:
.L54:
	.loc 1 11 30 view .LVU477
.LBE386:
.LBE385:
	.loc 1 23 4 is_stmt 1 view .LVU478
	.loc 1 23 7 is_stmt 0 view .LVU479
	btq	%r10, %r11
	jnc	.L53
	.loc 1 24 5 is_stmt 1 view .LVU480
	.loc 1 24 8 is_stmt 0 view .LVU481
	xorq	%r8, %r9
.LVL127:
	.loc 1 25 5 is_stmt 1 view .LVU482
	.loc 1 25 8 is_stmt 0 view .LVU483
	xorq	%rcx, %rdx
.LVL128:
.L53:
	.loc 1 27 4 is_stmt 1 view .LVU484
.LBB392:
.LBI385:
	.loc 1 6 13 view .LVU485
.LBB387:
	.loc 1 7 2 view .LVU486
	.loc 1 8 2 view .LVU487
	.loc 1 9 2 view .LVU488
	.loc 1 10 2 view .LVU489
	.loc 1 10 11 is_stmt 0 view .LVU490
	movq	%r8, %rdi
	.loc 1 11 36 view .LVU491
	movq	%rcx, %rax
.LBE387:
.LBE392:
	.loc 1 22 28 view .LVU492
	addl	$1, %r10d
.LVL129:
.LBB393:
.LBB388:
	.loc 1 10 11 view .LVU493
	salq	$23, %rdi
	.loc 1 11 36 view .LVU494
	shrq	$5, %rax
	.loc 1 10 5 view .LVU495
	xorq	%r8, %rdi
.LVL130:
	.loc 1 11 2 is_stmt 1 view .LVU496
	movq	%rcx, %r8
	.loc 1 11 30 is_stmt 0 view .LVU497
	xorq	%rdi, %rax
	.loc 1 11 23 view .LVU498
	shrq	$18, %rdi
.LVL131:
	.loc 1 11 30 view .LVU499
	xorq	%rcx, %rax
	xorq	%rdi, %rax
.LVL132:
	.loc 1 11 30 view .LVU500
.LBE388:
.LBE393:
	.loc 1 22 28 is_stmt 1 view .LVU501
	.loc 1 22 21 view .LVU502
	cmpl	$64, %r10d
	jne	.L66
	.loc 1 23 8 is_stmt 0 view .LVU503
	movabsq	$1305993406145048470, %r10
.LVL133:
	.loc 1 22 12 view .LVU504
	xorl	%r8d, %r8d
	jmp	.L56
.LVL134:
	.p2align 4,,10
	.p2align 3
.L67:
.LBB394:
.LBB389:
	.loc 1 11 30 view .LVU505
	movq	%rdi, %rax
.LVL135:
.L56:
	.loc 1 11 30 view .LVU506
.LBE389:
.LBE394:
	.loc 1 23 4 is_stmt 1 view .LVU507
	.loc 1 23 7 is_stmt 0 view .LVU508
	btq	%r8, %r10
	jnc	.L55
	.loc 1 24 5 is_stmt 1 view .LVU509
	.loc 1 24 8 is_stmt 0 view .LVU510
	xorq	%rcx, %r9
.LVL136:
	.loc 1 25 5 is_stmt 1 view .LVU511
	.loc 1 25 8 is_stmt 0 view .LVU512
	xorq	%rax, %rdx
.LVL137:
.L55:
	.loc 1 27 4 is_stmt 1 view .LVU513
.LBB395:
	.loc 1 6 13 view .LVU514
.LBB390:
	.loc 1 7 2 view .LVU515
	.loc 1 8 2 view .LVU516
	.loc 1 9 2 view .LVU517
	.loc 1 10 2 view .LVU518
	.loc 1 10 11 is_stmt 0 view .LVU519
	movq	%rcx, %rdi
.LBE390:
.LBE395:
	.loc 1 22 28 view .LVU520
	addl	$1, %r8d
.LVL138:
.LBB396:
.LBB391:
	.loc 1 10 11 view .LVU521
	salq	$23, %rdi
	.loc 1 10 5 view .LVU522
	xorq	%rcx, %rdi
.LVL139:
	.loc 1 11 2 is_stmt 1 view .LVU523
	.loc 1 11 36 is_stmt 0 view .LVU524
	movq	%rax, %rcx
	shrq	$5, %rcx
	.loc 1 11 30 view .LVU525
	xorq	%rdi, %rcx
	.loc 1 11 23 view .LVU526
	shrq	$18, %rdi
.LVL140:
	.loc 1 11 30 view .LVU527
	xorq	%rax, %rcx
	xorq	%rcx, %rdi
.LVL141:
	.loc 1 11 30 view .LVU528
.LBE391:
.LBE396:
	.loc 1 22 28 is_stmt 1 view .LVU529
	.loc 1 22 21 view .LVU530
	movq	%rax, %rcx
	cmpl	$64, %r8d
	jne	.L67
	.loc 1 22 21 is_stmt 0 view .LVU531
.LBE397:
	.loc 1 21 62 is_stmt 1 view .LVU532
.LVL142:
	.loc 1 21 29 view .LVU533
.LBE398:
	.loc 1 29 2 view .LVU534
	.loc 1 29 13 is_stmt 0 view .LVU535
	movq	%r9, 32(%rsp)
	.loc 1 30 2 is_stmt 1 view .LVU536
.LBE399:
.LBE402:
.LBB403:
.LBB404:
	.loc 1 20 11 is_stmt 0 view .LVU537
	xorl	%edi, %edi
.LVL143:
	.loc 1 19 11 view .LVU538
	xorl	%r8d, %r8d
.LVL144:
.LBB405:
.LBB406:
	.loc 1 22 12 view .LVU539
	xorl	%r10d, %r10d
	.loc 1 23 8 view .LVU540
	movabsq	$-8476663413540573697, %r11
.LBE406:
.LBE405:
.LBE404:
.LBE403:
.LBB423:
.LBB400:
	.loc 1 30 13 view .LVU541
	movq	%rdx, 64(%rsp)
.LVL145:
	.loc 1 30 13 view .LVU542
.LBE400:
.LBE423:
	.loc 1 111 2 is_stmt 1 view .LVU543
.LBB424:
.LBI403:
	.loc 1 15 13 view .LVU544
.LBB421:
.LBB420:
	.loc 1 21 29 view .LVU545
.LBB419:
	.loc 1 22 21 view .LVU546
	jmp	.L58
.LVL146:
	.p2align 4,,10
	.p2align 3
.L68:
.LBB407:
.LBB408:
	.loc 1 11 30 is_stmt 0 view .LVU547
	movq	%rax, %rdx
.LVL147:
.L58:
	.loc 1 11 30 view .LVU548
.LBE408:
.LBE407:
	.loc 1 23 4 is_stmt 1 view .LVU549
	.loc 1 23 7 is_stmt 0 view .LVU550
	btq	%r10, %r11
	jnc	.L57
	.loc 1 24 5 is_stmt 1 view .LVU551
	.loc 1 24 8 is_stmt 0 view .LVU552
	xorq	%r9, %r8
.LVL148:
	.loc 1 25 5 is_stmt 1 view .LVU553
	.loc 1 25 8 is_stmt 0 view .LVU554
	xorq	%rdx, %rdi
.LVL149:
.L57:
	.loc 1 27 4 is_stmt 1 view .LVU555
.LBB414:
.LBI407:
	.loc 1 6 13 view .LVU556
.LBB409:
	.loc 1 7 2 view .LVU557
	.loc 1 8 2 view .LVU558
	.loc 1 9 2 view .LVU559
	.loc 1 10 2 view .LVU560
	.loc 1 10 11 is_stmt 0 view .LVU561
	movq	%r9, %rcx
	.loc 1 11 36 view .LVU562
	movq	%rdx, %rax
.LBE409:
.LBE414:
	.loc 1 22 28 view .LVU563
	addl	$1, %r10d
.LVL150:
.LBB415:
.LBB410:
	.loc 1 10 11 view .LVU564
	salq	$23, %rcx
	.loc 1 11 36 view .LVU565
	shrq	$5, %rax
	.loc 1 10 5 view .LVU566
	xorq	%r9, %rcx
.LVL151:
	.loc 1 11 2 is_stmt 1 view .LVU567
	movq	%rdx, %r9
	.loc 1 11 30 is_stmt 0 view .LVU568
	xorq	%rcx, %rax
	.loc 1 11 23 view .LVU569
	shrq	$18, %rcx
.LVL152:
	.loc 1 11 30 view .LVU570
	xorq	%rdx, %rax
	xorq	%rcx, %rax
.LVL153:
	.loc 1 11 30 view .LVU571
.LBE410:
.LBE415:
	.loc 1 22 28 is_stmt 1 view .LVU572
	.loc 1 22 21 view .LVU573
	cmpl	$64, %r10d
	jne	.L68
	.loc 1 23 8 is_stmt 0 view .LVU574
	movabsq	$1305993406145048470, %r10
.LVL154:
	.loc 1 22 12 view .LVU575
	xorl	%r9d, %r9d
	jmp	.L60
.LVL155:
	.p2align 4,,10
	.p2align 3
.L69:
.LBB416:
.LBB411:
	.loc 1 11 30 view .LVU576
	movq	%rcx, %rax
.LVL156:
.L60:
	.loc 1 11 30 view .LVU577
.LBE411:
.LBE416:
	.loc 1 23 4 is_stmt 1 view .LVU578
	.loc 1 23 7 is_stmt 0 view .LVU579
	btq	%r9, %r10
	jnc	.L59
	.loc 1 24 5 is_stmt 1 view .LVU580
	.loc 1 24 8 is_stmt 0 view .LVU581
	xorq	%rdx, %r8
.LVL157:
	.loc 1 25 5 is_stmt 1 view .LVU582
	.loc 1 25 8 is_stmt 0 view .LVU583
	xorq	%rax, %rdi
.LVL158:
.L59:
	.loc 1 27 4 is_stmt 1 view .LVU584
.LBB417:
	.loc 1 6 13 view .LVU585
.LBB412:
	.loc 1 7 2 view .LVU586
	.loc 1 8 2 view .LVU587
	.loc 1 9 2 view .LVU588
	.loc 1 10 2 view .LVU589
	.loc 1 10 11 is_stmt 0 view .LVU590
	movq	%rdx, %rcx
.LBE412:
.LBE417:
	.loc 1 22 28 view .LVU591
	addl	$1, %r9d
.LVL159:
.LBB418:
.LBB413:
	.loc 1 10 11 view .LVU592
	salq	$23, %rcx
	.loc 1 10 5 view .LVU593
	xorq	%rdx, %rcx
.LVL160:
	.loc 1 11 2 is_stmt 1 view .LVU594
	.loc 1 11 36 is_stmt 0 view .LVU595
	movq	%rax, %rdx
	shrq	$5, %rdx
	.loc 1 11 30 view .LVU596
	xorq	%rcx, %rdx
	.loc 1 11 23 view .LVU597
	shrq	$18, %rcx
.LVL161:
	.loc 1 11 30 view .LVU598
	xorq	%rax, %rdx
	xorq	%rdx, %rcx
.LVL162:
	.loc 1 11 30 view .LVU599
.LBE413:
.LBE418:
	.loc 1 22 28 is_stmt 1 view .LVU600
	.loc 1 22 21 view .LVU601
	movq	%rax, %rdx
	cmpl	$64, %r9d
	jne	.L69
	.loc 1 22 21 is_stmt 0 view .LVU602
.LBE419:
	.loc 1 21 62 is_stmt 1 view .LVU603
.LVL163:
	.loc 1 21 29 view .LVU604
.LBE420:
	.loc 1 29 2 view .LVU605
	.loc 1 29 13 is_stmt 0 view .LVU606
	movq	%r8, 40(%rsp)
	.loc 1 30 2 is_stmt 1 view .LVU607
.LBE421:
.LBE424:
	.loc 1 112 13 is_stmt 0 view .LVU608
	vmovdqu	16(%rsp), %ymm3
.LBB425:
.LBB422:
	.loc 1 30 13 view .LVU609
	movq	%rdi, 72(%rsp)
.LVL164:
	.loc 1 30 13 view .LVU610
.LBE422:
.LBE425:
	.loc 1 112 2 is_stmt 1 view .LVU611
.LBB426:
.LBI426:
	.loc 2 927 1 view .LVU612
.LBB427:
	.loc 2 929 3 view .LVU613
	.loc 2 929 3 is_stmt 0 view .LVU614
.LBE427:
.LBE426:
	.loc 1 113 13 view .LVU615
	vmovdqu	48(%rsp), %ymm4
	.loc 1 112 13 view .LVU616
	vmovdqa	%ymm3, (%rsi)
	.loc 1 113 2 is_stmt 1 view .LVU617
.LVL165:
.LBB428:
.LBI428:
	.loc 2 927 1 view .LVU618
.LBB429:
	.loc 2 929 3 view .LVU619
	.loc 2 929 3 is_stmt 0 view .LVU620
.LBE429:
.LBE428:
	.loc 1 113 13 view .LVU621
	vmovdqa	%ymm4, 32(%rsi)
	.loc 1 114 1 view .LVU622
	movq	88(%rsp), %rax
	subq	%fs:40, %rax
	jne	.L96
	vzeroupper
.LVL166:
	.loc 1 114 1 view .LVU623
	leave
	.cfi_remember_state
	.cfi_def_cfa 7, 8
	ret
.LVL167:
.L96:
	.cfi_restore_state
	.loc 1 114 1 view .LVU624
	vzeroupper
.LVL168:
	.loc 1 114 1 view .LVU625
	call	__stack_chk_fail@PLT
.LVL169:
	.loc 1 114 1 view .LVU626
	.cfi_endproc
.LFE5702:
	.size	avx_xorshift128plus_jump, .-avx_xorshift128plus_jump
	.p2align 4
	.globl	avx_xorshift128plus_shuffle32_partial
	.type	avx_xorshift128plus_shuffle32_partial, @function
avx_xorshift128plus_shuffle32_partial:
.LVL170:
.LFB5705:
	.loc 1 151 69 is_stmt 1 view -0
	.cfi_startproc
	.loc 1 151 69 is_stmt 0 view .LVU628
	endbr64
	pushq	%rbp
	.cfi_def_cfa_offset 16
	.cfi_offset 6, -16
	movq	%rsi, %rax
	.loc 1 155 29 view .LVU629
	leal	-6(%rdx), %esi
.LVL171:
	.loc 1 155 9 view .LVU630
	leal	-4(%rdx), %r8d
.LBB430:
.LBB431:
.LBB432:
	.loc 2 1268 41 view .LVU631
	vmovd	%esi, %xmm7
.LBE432:
.LBE431:
.LBE430:
	.loc 1 154 60 view .LVU632
	leal	-2(%rdx), %r10d
	.loc 1 154 70 view .LVU633
	leal	-3(%rdx), %r9d
	.loc 1 154 50 view .LVU634
	leal	-1(%rdx), %r11d
	.loc 1 151 69 view .LVU635
	movq	%rsp, %rbp
	.cfi_def_cfa_register 6
	pushq	%r15
	.cfi_offset 15, -24
	movl	%ecx, %r15d
	pushq	%r14
	.cfi_offset 14, -32
	.loc 1 159 43 view .LVU636
	leal	8(%r15), %r14d
	.loc 1 151 69 view .LVU637
	pushq	%r13
	pushq	%r12
	pushq	%rbx
	.cfi_offset 13, -40
	.cfi_offset 12, -48
	.cfi_offset 3, -56
	movq	%rdi, %rbx
	andq	$-32, %rsp
	subq	$64, %rsp
	.loc 1 151 69 view .LVU638
	movq	%rdi, 8(%rsp)
	.loc 1 155 19 view .LVU639
	leal	-5(%rdx), %edi
.LVL172:
	.loc 1 151 69 view .LVU640
	movq	%fs:40, %rcx
	movq	%rcx, 56(%rsp)
	xorl	%ecx, %ecx
.LVL173:
	.loc 1 152 2 is_stmt 1 view .LVU641
	.loc 1 153 2 view .LVU642
	.loc 1 154 2 view .LVU643
.LBB441:
.LBI430:
	.loc 2 1371 1 view .LVU644
	.loc 2 1374 3 view .LVU645
.LBB437:
.LBI431:
	.loc 2 1265 1 view .LVU646
.LBB433:
	.loc 2 1268 3 view .LVU647
.LBE433:
.LBE437:
.LBE441:
	.loc 1 155 39 is_stmt 0 view .LVU648
	leal	-7(%rdx), %ecx
.LBB442:
.LBB438:
.LBB434:
	.loc 2 1268 41 view .LVU649
	vpinsrd	$1, %ecx, %xmm7, %xmm1
	vmovd	%r8d, %xmm7
	vpinsrd	$1, %edi, %xmm7, %xmm0
	vmovd	%r10d, %xmm7
	vpunpcklqdq	%xmm1, %xmm0, %xmm0
	vpinsrd	$1, %r9d, %xmm7, %xmm1
	vmovd	%edx, %xmm7
	vpinsrd	$1, %r11d, %xmm7, %xmm2
	vpunpcklqdq	%xmm1, %xmm2, %xmm2
.LBE434:
.LBE438:
.LBE442:
.LBB443:
.LBB444:
	.loc 1 51 16 view .LVU650
	vmovdqa	32(%rbx), %ymm1
.LBE444:
.LBE443:
.LBB475:
.LBB439:
.LBB435:
	.loc 2 1268 41 view .LVU651
	vinserti128	$0x1, %xmm0, %ymm2, %ymm2
.LBE435:
.LBE439:
.LBE475:
.LBB476:
.LBB473:
.LBB445:
.LBB446:
	.loc 3 698 19 view .LVU652
	vpsllq	$23, %ymm1, %ymm3
.LBE446:
.LBE445:
.LBB448:
.LBB449:
	.loc 3 789 19 view .LVU653
	vpsrlq	$5, %ymm1, %ymm4
.LBE449:
.LBE448:
	.loc 1 52 13 view .LVU654
	vmovdqa	%ymm1, (%rbx)
.LBE473:
.LBE476:
.LBB477:
.LBB440:
.LBB436:
	.loc 2 1268 24 view .LVU655
	vmovdqa	%ymm2, %ymm5
.LVL174:
	.loc 2 1268 24 view .LVU656
.LBE436:
.LBE440:
.LBE477:
	.loc 1 156 2 is_stmt 1 view .LVU657
.LBB478:
.LBI443:
	.loc 1 49 9 view .LVU658
.LBB474:
	.loc 1 50 2 view .LVU659
	.loc 1 51 2 view .LVU660
	.loc 1 52 2 view .LVU661
	.loc 1 53 2 view .LVU662
.LBB451:
.LBI445:
	.loc 3 696 1 view .LVU663
.LBB447:
	.loc 3 698 3 view .LVU664
	.loc 3 698 3 is_stmt 0 view .LVU665
.LBE447:
.LBE451:
.LBB452:
.LBI452:
	.loc 3 913 1 is_stmt 1 view .LVU666
.LBB453:
	.loc 3 915 3 view .LVU667
	.loc 3 915 3 is_stmt 0 view .LVU668
.LBE453:
.LBE452:
	.loc 1 54 2 is_stmt 1 view .LVU669
.LBB455:
.LBI448:
	.loc 3 787 1 view .LVU670
.LBB450:
	.loc 3 789 3 view .LVU671
	.loc 3 789 3 is_stmt 0 view .LVU672
.LBE450:
.LBE455:
.LBB456:
.LBI456:
	.loc 3 787 1 is_stmt 1 view .LVU673
.LBB457:
	.loc 3 789 3 view .LVU674
.LBE457:
.LBE456:
.LBB459:
.LBB454:
	.loc 3 915 33 is_stmt 0 view .LVU675
	vpxor	%ymm3, %ymm1, %ymm0
.LVL175:
	.loc 3 915 33 view .LVU676
.LBE454:
.LBE459:
.LBB460:
.LBB458:
	.loc 3 789 19 view .LVU677
	vpsrlq	$18, %ymm0, %ymm0
.LVL176:
	.loc 3 789 19 view .LVU678
.LBE458:
.LBE460:
.LBB461:
.LBI461:
	.loc 3 913 1 is_stmt 1 view .LVU679
.LBB462:
	.loc 3 915 3 view .LVU680
	.loc 3 915 3 is_stmt 0 view .LVU681
.LBE462:
.LBE461:
.LBB464:
.LBI464:
	.loc 3 913 1 is_stmt 1 view .LVU682
.LBB465:
	.loc 3 915 3 view .LVU683
.LBE465:
.LBE464:
.LBB467:
.LBB463:
	.loc 3 915 33 is_stmt 0 view .LVU684
	vpxor	%ymm3, %ymm0, %ymm0
.LVL177:
	.loc 3 915 33 view .LVU685
.LBE463:
.LBE467:
.LBB468:
.LBB466:
	vpxor	%ymm4, %ymm0, %ymm0
.LVL178:
	.loc 3 915 33 view .LVU686
.LBE466:
.LBE468:
.LBB469:
.LBB470:
	.loc 3 128 33 view .LVU687
	vpaddq	%ymm0, %ymm1, %ymm1
.LVL179:
	.loc 3 128 33 view .LVU688
.LBE470:
.LBE469:
	.loc 1 54 13 view .LVU689
	vmovdqa	%ymm0, 32(%rbx)
	.loc 1 57 2 is_stmt 1 view .LVU690
.LVL180:
.LBB472:
.LBI469:
	.loc 3 126 1 view .LVU691
.LBB471:
	.loc 3 128 3 view .LVU692
	.loc 3 128 3 is_stmt 0 view .LVU693
.LBE471:
.LBE472:
.LBE474:
.LBE478:
.LBB479:
.LBI479:
	.loc 1 133 16 is_stmt 1 view .LVU694
.LBB480:
	.loc 1 135 2 view .LVU695
.LBB481:
.LBI481:
	.loc 3 567 1 view .LVU696
.LBB482:
	.loc 3 569 3 view .LVU697
	.loc 3 569 19 is_stmt 0 view .LVU698
	vpmuludq	%ymm2, %ymm1, %ymm3
.LVL181:
	.loc 3 569 19 view .LVU699
.LBE482:
.LBE481:
.LBB483:
.LBI483:
	.loc 3 787 1 is_stmt 1 view .LVU700
.LBB484:
	.loc 3 789 3 view .LVU701
.LBE484:
.LBE483:
.LBB486:
.LBB487:
	.loc 3 789 19 is_stmt 0 view .LVU702
	vpsrlq	$32, %ymm2, %ymm2
.LVL182:
	.loc 3 789 19 view .LVU703
.LBE487:
.LBE486:
.LBB489:
.LBB490:
	vpsrlq	$32, %ymm1, %ymm1
.LVL183:
	.loc 3 789 19 view .LVU704
.LBE490:
.LBE489:
.LBB492:
.LBB493:
	.loc 3 569 19 view .LVU705
	vpmuludq	%ymm2, %ymm1, %ymm1
.LBE493:
.LBE492:
.LBB495:
.LBB485:
	.loc 3 789 19 view .LVU706
	vpsrlq	$32, %ymm3, %ymm3
.LVL184:
	.loc 3 789 19 view .LVU707
.LBE485:
.LBE495:
	.loc 1 138 2 is_stmt 1 view .LVU708
.LBB496:
.LBI486:
	.loc 3 787 1 view .LVU709
.LBB488:
	.loc 3 789 3 view .LVU710
	.loc 3 789 3 is_stmt 0 view .LVU711
.LBE488:
.LBE496:
.LBB497:
.LBI489:
	.loc 3 787 1 is_stmt 1 view .LVU712
.LBB491:
	.loc 3 789 3 view .LVU713
	.loc 3 789 3 is_stmt 0 view .LVU714
.LBE491:
.LBE497:
.LBB498:
.LBI492:
	.loc 3 567 1 is_stmt 1 view .LVU715
.LBB494:
	.loc 3 569 3 view .LVU716
	.loc 3 569 3 is_stmt 0 view .LVU717
.LBE494:
.LBE498:
	.loc 1 142 2 is_stmt 1 view .LVU718
.LBB499:
.LBI499:
	.loc 3 974 1 view .LVU719
.LBB500:
	.loc 3 976 3 view .LVU720
	.loc 3 976 20 is_stmt 0 view .LVU721
	vpblendd	$170, %ymm1, %ymm3, %ymm1
.LVL185:
	.loc 3 976 20 view .LVU722
.LBE500:
.LBE499:
.LBE480:
.LBE479:
	.loc 1 157 2 is_stmt 1 view .LVU723
.LBB501:
.LBI501:
	.loc 2 933 1 view .LVU724
.LBB502:
	.loc 2 935 3 view .LVU725
	.loc 2 935 8 is_stmt 0 view .LVU726
	vmovdqu	%ymm1, 16(%rsp)
.LVL186:
	.loc 2 935 8 view .LVU727
.LBE502:
.LBE501:
	.loc 1 158 2 is_stmt 1 view .LVU728
	.loc 1 159 2 view .LVU729
	.loc 1 159 19 view .LVU730
	cmpl	%r14d, %edx
	jbe	.L100
	vmovdqa	.LC0(%rip), %ymm6
	jmp	.L98
.LVL187:
	.p2align 4,,10
	.p2align 3
.L109:
	.loc 1 159 19 is_stmt 0 view .LVU731
	leal	-1(%rdx), %r11d
	leal	-2(%rdx), %r10d
	leal	-3(%rdx), %r9d
	leal	-4(%rdx), %r8d
.LVL188:
	.loc 1 159 19 view .LVU732
	leal	-5(%rdx), %edi
.LVL189:
	.loc 1 159 19 view .LVU733
	leal	-6(%rdx), %esi
	leal	-7(%rdx), %ecx
.LVL190:
.L98:
.LBB503:
	.loc 1 160 21 is_stmt 1 view .LVU734
.LBB504:
	.loc 1 161 4 view .LVU735
	.loc 1 162 4 view .LVU736
	.loc 1 162 21 is_stmt 0 view .LVU737
	leaq	(%rax,%r11,4), %rbx
	.loc 1 163 21 view .LVU738
	movl	16(%rsp), %r11d
.LBE504:
.LBE503:
.LBB524:
.LBB525:
.LBB526:
.LBB527:
	.loc 3 698 19 view .LVU739
	vmovdqa	%ymm0, %ymm4
.LBE527:
.LBE526:
.LBE525:
.LBE524:
.LBB562:
.LBB563:
	.loc 3 817 33 view .LVU740
	vpaddd	%ymm5, %ymm6, %ymm3
.LBE563:
.LBE562:
.LBB566:
.LBB505:
	.loc 1 162 21 view .LVU741
	movl	(%rbx), %r13d
.LVL191:
	.loc 1 163 4 is_stmt 1 view .LVU742
.LBE505:
.LBE566:
.LBB567:
.LBB556:
.LBB530:
.LBB528:
	.loc 3 698 19 is_stmt 0 view .LVU743
	vpsllq	$23, %ymm0, %ymm1
.LVL192:
	.loc 3 698 19 view .LVU744
.LBE528:
.LBE530:
.LBB531:
.LBB532:
	.loc 3 789 19 view .LVU745
	vpsrlq	$5, %ymm0, %ymm2
.LBE532:
.LBE531:
.LBE556:
.LBE567:
.LBB568:
.LBB564:
	.loc 3 817 10 view .LVU746
	vmovdqa	%ymm3, %ymm5
.LVL193:
	.loc 3 817 10 view .LVU747
.LBE564:
.LBE568:
.LBB569:
.LBB506:
	.loc 1 163 21 view .LVU748
	leaq	(%rax,%r11,4), %r11
.LVL194:
	.loc 1 164 4 is_stmt 1 view .LVU749
.LBE506:
.LBE569:
.LBB570:
.LBB557:
.LBB534:
.LBB535:
	.loc 3 915 33 is_stmt 0 view .LVU750
	vpxor	%ymm1, %ymm0, %ymm0
.LBE535:
.LBE534:
.LBE557:
.LBE570:
.LBB571:
.LBB507:
	.loc 1 164 19 view .LVU751
	movl	(%r11), %r12d
.LBE507:
.LBE571:
.LBB572:
.LBB558:
.LBB537:
.LBB538:
	.loc 3 789 19 view .LVU752
	vpsrlq	$18, %ymm0, %ymm0
.LBE538:
.LBE537:
.LBB540:
.LBB541:
	.loc 3 915 33 view .LVU753
	vpxor	%ymm1, %ymm0, %ymm0
.LBE541:
.LBE540:
.LBE558:
.LBE572:
.LBB573:
.LBB508:
	.loc 1 164 19 view .LVU754
	movl	%r12d, (%rbx)
.LVL195:
	.loc 1 165 4 is_stmt 1 view .LVU755
.LBE508:
.LBE573:
.LBB574:
.LBB559:
.LBB543:
.LBB544:
	.loc 3 915 33 is_stmt 0 view .LVU756
	vpxor	%ymm2, %ymm0, %ymm0
.LBE544:
.LBE543:
.LBE559:
.LBE574:
.LBB575:
.LBB509:
	.loc 1 165 21 view .LVU757
	movl	%r13d, (%r11)
	.loc 1 166 4 is_stmt 1 view .LVU758
.LVL196:
	.loc 1 166 4 is_stmt 0 view .LVU759
.LBE509:
	.loc 1 160 26 is_stmt 1 view .LVU760
	.loc 1 160 21 view .LVU761
.LBB510:
	.loc 1 161 4 view .LVU762
	.loc 1 162 4 view .LVU763
	.loc 1 162 21 is_stmt 0 view .LVU764
	leaq	(%rax,%r10,4), %r11
	.loc 1 163 21 view .LVU765
	movl	20(%rsp), %r10d
.LBE510:
.LBE575:
.LBB576:
.LBB560:
.LBB546:
.LBB547:
	.loc 3 128 33 view .LVU766
	vpaddq	%ymm0, %ymm4, %ymm1
.LBE547:
.LBE546:
.LBE560:
.LBE576:
.LBB577:
.LBB511:
	.loc 1 162 21 view .LVU767
	movl	(%r11), %ebx
.LVL197:
	.loc 1 163 4 is_stmt 1 view .LVU768
.LBE511:
.LBE577:
.LBB578:
.LBB579:
.LBB580:
.LBB581:
	.loc 3 569 19 is_stmt 0 view .LVU769
	vpmuludq	%ymm3, %ymm1, %ymm2
.LBE581:
.LBE580:
.LBB583:
.LBB584:
	.loc 3 789 19 view .LVU770
	vpsrlq	$32, %ymm3, %ymm3
.LBE584:
.LBE583:
.LBE579:
.LBE578:
.LBB609:
.LBB512:
	.loc 1 163 21 view .LVU771
	leaq	(%rax,%r10,4), %r10
.LBE512:
.LBE609:
.LBB610:
.LBB604:
.LBB586:
.LBB587:
	.loc 3 789 19 view .LVU772
	vpsrlq	$32, %ymm1, %ymm1
.LBE587:
.LBE586:
.LBE604:
.LBE610:
.LBB611:
.LBB513:
	.loc 1 163 21 view .LVU773
	movl	(%r10), %r13d
.LVL198:
	.loc 1 164 4 is_stmt 1 view .LVU774
.LBE513:
.LBE611:
.LBB612:
.LBB605:
.LBB589:
.LBB590:
	.loc 3 569 19 is_stmt 0 view .LVU775
	vpmuludq	%ymm3, %ymm1, %ymm1
.LBE590:
.LBE589:
.LBE605:
.LBE612:
.LBB613:
.LBB514:
	.loc 1 164 19 view .LVU776
	movl	%r13d, (%r11)
	.loc 1 165 4 is_stmt 1 view .LVU777
	.loc 1 165 21 is_stmt 0 view .LVU778
	movl	%ebx, (%r10)
	.loc 1 166 4 is_stmt 1 view .LVU779
.LVL199:
	.loc 1 166 4 is_stmt 0 view .LVU780
.LBE514:
	.loc 1 160 26 is_stmt 1 view .LVU781
	.loc 1 160 21 view .LVU782
.LBB515:
	.loc 1 161 4 view .LVU783
	.loc 1 162 4 view .LVU784
	.loc 1 162 21 is_stmt 0 view .LVU785
	leaq	(%rax,%r9,4), %r10
	.loc 1 163 21 view .LVU786
	movl	24(%rsp), %r9d
.LBE515:
.LBE613:
.LBB614:
.LBB606:
.LBB592:
.LBB593:
	.loc 3 789 19 view .LVU787
	vpsrlq	$32, %ymm2, %ymm2
.LBE593:
.LBE592:
.LBE606:
.LBE614:
.LBB615:
.LBB516:
	.loc 1 162 21 view .LVU788
	movl	(%r10), %r11d
.LVL200:
	.loc 1 163 4 is_stmt 1 view .LVU789
	.loc 1 163 21 is_stmt 0 view .LVU790
	leaq	(%rax,%r9,4), %r9
.LBE516:
.LBE615:
.LBB616:
.LBB607:
.LBB595:
.LBB596:
	.loc 3 976 20 view .LVU791
	vpblendd	$170, %ymm1, %ymm2, %ymm1
.LBE596:
.LBE595:
.LBE607:
.LBE616:
.LBB617:
.LBB517:
	.loc 1 163 21 view .LVU792
	movl	(%r9), %ebx
.LVL201:
	.loc 1 164 4 is_stmt 1 view .LVU793
	.loc 1 164 19 is_stmt 0 view .LVU794
	movl	%ebx, (%r10)
	.loc 1 165 4 is_stmt 1 view .LVU795
	.loc 1 165 21 is_stmt 0 view .LVU796
	movl	%r11d, (%r9)
	.loc 1 166 4 is_stmt 1 view .LVU797
.LVL202:
	.loc 1 166 4 is_stmt 0 view .LVU798
.LBE517:
	.loc 1 160 26 is_stmt 1 view .LVU799
	.loc 1 160 21 view .LVU800
.LBB518:
	.loc 1 161 4 view .LVU801
	.loc 1 162 4 view .LVU802
	.loc 1 162 21 is_stmt 0 view .LVU803
	leaq	(%rax,%r8,4), %r9
	.loc 1 163 21 view .LVU804
	movl	28(%rsp), %r8d
	.loc 1 162 21 view .LVU805
	movl	(%r9), %r10d
.LVL203:
	.loc 1 163 4 is_stmt 1 view .LVU806
	.loc 1 163 21 is_stmt 0 view .LVU807
	leaq	(%rax,%r8,4), %r8
	movl	(%r8), %r11d
.LVL204:
	.loc 1 164 4 is_stmt 1 view .LVU808
	.loc 1 164 19 is_stmt 0 view .LVU809
	movl	%r11d, (%r9)
	.loc 1 165 4 is_stmt 1 view .LVU810
	.loc 1 165 21 is_stmt 0 view .LVU811
	movl	%r10d, (%r8)
	.loc 1 166 4 is_stmt 1 view .LVU812
.LVL205:
	.loc 1 166 4 is_stmt 0 view .LVU813
.LBE518:
	.loc 1 160 26 is_stmt 1 view .LVU814
	.loc 1 160 21 view .LVU815
.LBB519:
	.loc 1 161 4 view .LVU816
	.loc 1 162 4 view .LVU817
	.loc 1 162 21 is_stmt 0 view .LVU818
	leaq	(%rax,%rdi,4), %r8
	.loc 1 163 21 view .LVU819
	movl	32(%rsp), %edi
	.loc 1 162 21 view .LVU820
	movl	(%r8), %r9d
.LVL206:
	.loc 1 163 4 is_stmt 1 view .LVU821
	.loc 1 163 21 is_stmt 0 view .LVU822
	leaq	(%rax,%rdi,4), %rdi
	movl	(%rdi), %r10d
.LVL207:
	.loc 1 164 4 is_stmt 1 view .LVU823
	.loc 1 164 19 is_stmt 0 view .LVU824
	movl	%r10d, (%r8)
	.loc 1 165 4 is_stmt 1 view .LVU825
	.loc 1 165 21 is_stmt 0 view .LVU826
	movl	%r9d, (%rdi)
	.loc 1 166 4 is_stmt 1 view .LVU827
.LVL208:
	.loc 1 166 4 is_stmt 0 view .LVU828
.LBE519:
	.loc 1 160 26 is_stmt 1 view .LVU829
	.loc 1 160 21 view .LVU830
.LBB520:
	.loc 1 161 4 view .LVU831
	.loc 1 162 4 view .LVU832
	.loc 1 162 21 is_stmt 0 view .LVU833
	leaq	(%rax,%rsi,4), %rdi
	.loc 1 163 21 view .LVU834
	movl	36(%rsp), %esi
	.loc 1 162 21 view .LVU835
	movl	(%rdi), %r8d
.LVL209:
	.loc 1 163 4 is_stmt 1 view .LVU836
	.loc 1 163 21 is_stmt 0 view .LVU837
	leaq	(%rax,%rsi,4), %rsi
	movl	(%rsi), %r9d
.LVL210:
	.loc 1 164 4 is_stmt 1 view .LVU838
	.loc 1 164 19 is_stmt 0 view .LVU839
	movl	%r9d, (%rdi)
	.loc 1 165 4 is_stmt 1 view .LVU840
	.loc 1 165 21 is_stmt 0 view .LVU841
	movl	%r8d, (%rsi)
	.loc 1 166 4 is_stmt 1 view .LVU842
.LVL211:
	.loc 1 166 4 is_stmt 0 view .LVU843
.LBE520:
	.loc 1 160 26 is_stmt 1 view .LVU844
	.loc 1 160 21 view .LVU845
.LBB521:
	.loc 1 161 4 view .LVU846
	.loc 1 162 4 view .LVU847
	.loc 1 162 21 is_stmt 0 view .LVU848
	leaq	(%rax,%rcx,4), %rsi
	.loc 1 163 21 view .LVU849
	movl	40(%rsp), %ecx
	.loc 1 162 21 view .LVU850
	movl	(%rsi), %edi
.LVL212:
	.loc 1 163 4 is_stmt 1 view .LVU851
	.loc 1 163 21 is_stmt 0 view .LVU852
	leaq	(%rax,%rcx,4), %rcx
	movl	(%rcx), %r8d
.LVL213:
	.loc 1 164 4 is_stmt 1 view .LVU853
	.loc 1 164 19 is_stmt 0 view .LVU854
	movl	%r8d, (%rsi)
	.loc 1 165 4 is_stmt 1 view .LVU855
	.loc 1 165 21 is_stmt 0 view .LVU856
	movl	%edi, (%rcx)
	.loc 1 166 4 is_stmt 1 view .LVU857
.LVL214:
	.loc 1 166 4 is_stmt 0 view .LVU858
.LBE521:
	.loc 1 160 26 is_stmt 1 view .LVU859
	.loc 1 160 21 view .LVU860
.LBB522:
	.loc 1 161 4 view .LVU861
	.loc 1 162 4 view .LVU862
	.loc 1 162 24 is_stmt 0 view .LVU863
	leal	-8(%rdx), %ecx
	.loc 1 162 21 view .LVU864
	leaq	(%rax,%rcx,4), %rsi
	.loc 1 162 24 view .LVU865
	movq	%rcx, %rdx
.LVL215:
	.loc 1 163 21 view .LVU866
	movl	44(%rsp), %ecx
.LBE522:
.LBE617:
.LBB618:
.LBB619:
	.loc 2 935 8 view .LVU867
	vmovdqu	%ymm1, 16(%rsp)
.LVL216:
	.loc 2 935 8 view .LVU868
.LBE619:
.LBE618:
.LBB621:
.LBB523:
	.loc 1 162 21 view .LVU869
	movl	(%rsi), %edi
.LVL217:
	.loc 1 163 4 is_stmt 1 view .LVU870
	.loc 1 163 21 is_stmt 0 view .LVU871
	leaq	(%rax,%rcx,4), %rcx
.LVL218:
	.loc 1 163 21 view .LVU872
	movl	(%rcx), %r8d
.LVL219:
	.loc 1 164 4 is_stmt 1 view .LVU873
	.loc 1 164 19 is_stmt 0 view .LVU874
	movl	%r8d, (%rsi)
	.loc 1 165 4 is_stmt 1 view .LVU875
	.loc 1 165 21 is_stmt 0 view .LVU876
	movl	%edi, (%rcx)
	.loc 1 166 4 is_stmt 1 view .LVU877
.LVL220:
	.loc 1 166 4 is_stmt 0 view .LVU878
.LBE523:
	.loc 1 160 26 is_stmt 1 view .LVU879
	.loc 1 160 21 view .LVU880
.LBE621:
	.loc 1 168 3 view .LVU881
.LBB622:
.LBI562:
	.loc 3 815 1 view .LVU882
.LBB565:
	.loc 3 817 3 view .LVU883
	.loc 3 817 3 is_stmt 0 view .LVU884
.LBE565:
.LBE622:
	.loc 1 169 3 is_stmt 1 view .LVU885
.LBB623:
.LBI524:
	.loc 1 49 9 view .LVU886
.LBB561:
	.loc 1 50 2 view .LVU887
	.loc 1 51 2 view .LVU888
	.loc 1 52 2 view .LVU889
	.loc 1 53 2 view .LVU890
.LBB549:
.LBI526:
	.loc 3 696 1 view .LVU891
.LBB529:
	.loc 3 698 3 view .LVU892
	.loc 3 698 3 is_stmt 0 view .LVU893
.LBE529:
.LBE549:
.LBB550:
.LBI534:
	.loc 3 913 1 is_stmt 1 view .LVU894
.LBB536:
	.loc 3 915 3 view .LVU895
	.loc 3 915 3 is_stmt 0 view .LVU896
.LBE536:
.LBE550:
	.loc 1 54 2 is_stmt 1 view .LVU897
.LBB551:
.LBI531:
	.loc 3 787 1 view .LVU898
.LBB533:
	.loc 3 789 3 view .LVU899
	.loc 3 789 3 is_stmt 0 view .LVU900
.LBE533:
.LBE551:
.LBB552:
.LBI537:
	.loc 3 787 1 is_stmt 1 view .LVU901
.LBB539:
	.loc 3 789 3 view .LVU902
	.loc 3 789 3 is_stmt 0 view .LVU903
.LBE539:
.LBE552:
.LBB553:
.LBI540:
	.loc 3 913 1 is_stmt 1 view .LVU904
.LBB542:
	.loc 3 915 3 view .LVU905
	.loc 3 915 3 is_stmt 0 view .LVU906
.LBE542:
.LBE553:
.LBB554:
.LBI543:
	.loc 3 913 1 is_stmt 1 view .LVU907
.LBB545:
	.loc 3 915 3 view .LVU908
	.loc 3 915 3 is_stmt 0 view .LVU909
.LBE545:
.LBE554:
	.loc 1 57 2 is_stmt 1 view .LVU910
.LBB555:
.LBI546:
	.loc 3 126 1 view .LVU911
.LBB548:
	.loc 3 128 3 view .LVU912
	.loc 3 128 3 is_stmt 0 view .LVU913
.LBE548:
.LBE555:
.LBE561:
.LBE623:
.LBB624:
.LBI578:
	.loc 1 133 16 is_stmt 1 view .LVU914
.LBB608:
	.loc 1 135 2 view .LVU915
.LBB598:
.LBI580:
	.loc 3 567 1 view .LVU916
.LBB582:
	.loc 3 569 3 view .LVU917
	.loc 3 569 3 is_stmt 0 view .LVU918
.LBE582:
.LBE598:
.LBB599:
.LBI592:
	.loc 3 787 1 is_stmt 1 view .LVU919
.LBB594:
	.loc 3 789 3 view .LVU920
	.loc 3 789 3 is_stmt 0 view .LVU921
.LBE594:
.LBE599:
	.loc 1 138 2 is_stmt 1 view .LVU922
.LBB600:
.LBI583:
	.loc 3 787 1 view .LVU923
.LBB585:
	.loc 3 789 3 view .LVU924
	.loc 3 789 3 is_stmt 0 view .LVU925
.LBE585:
.LBE600:
.LBB601:
.LBI586:
	.loc 3 787 1 is_stmt 1 view .LVU926
.LBB588:
	.loc 3 789 3 view .LVU927
	.loc 3 789 3 is_stmt 0 view .LVU928
.LBE588:
.LBE601:
.LBB602:
.LBI589:
	.loc 3 567 1 is_stmt 1 view .LVU929
.LBB591:
	.loc 3 569 3 view .LVU930
	.loc 3 569 3 is_stmt 0 view .LVU931
.LBE591:
.LBE602:
	.loc 1 142 2 is_stmt 1 view .LVU932
.LBB603:
.LBI595:
	.loc 3 974 1 view .LVU933
.LBB597:
	.loc 3 976 3 view .LVU934
	.loc 3 976 3 is_stmt 0 view .LVU935
.LBE597:
.LBE603:
.LBE608:
.LBE624:
	.loc 1 170 3 is_stmt 1 view .LVU936
.LBB625:
.LBI618:
	.loc 2 933 1 view .LVU937
.LBB620:
	.loc 2 935 3 view .LVU938
	.loc 2 935 3 is_stmt 0 view .LVU939
.LBE620:
.LBE625:
	.loc 1 159 19 is_stmt 1 view .LVU940
	cmpl	%edx, %r14d
	jb	.L109
	movq	8(%rsp), %rbx
	vmovdqa	%ymm4, (%rbx)
.LVL221:
	.loc 1 159 19 is_stmt 0 view .LVU941
	vmovdqa	%ymm0, 32(%rbx)
.LVL222:
.L100:
.LBB626:
	.loc 1 172 18 is_stmt 1 view .LVU942
	cmpl	%edx, %r15d
	jnb	.L97
.LBB627:
	.loc 1 173 3 view .LVU943
.LVL223:
	.loc 1 174 3 view .LVU944
	.loc 1 174 23 is_stmt 0 view .LVU945
	leal	-1(%rdx), %esi
	.loc 1 174 20 view .LVU946
	leaq	(%rax,%rsi,4), %rdi
	.loc 1 174 23 view .LVU947
	movq	%rsi, %rcx
	.loc 1 175 20 view .LVU948
	movl	16(%rsp), %esi
	.loc 1 174 20 view .LVU949
	movl	(%rdi), %r8d
.LVL224:
	.loc 1 175 3 is_stmt 1 view .LVU950
	.loc 1 175 20 is_stmt 0 view .LVU951
	leaq	(%rax,%rsi,4), %rsi
	movl	(%rsi), %r9d
.LVL225:
	.loc 1 176 3 is_stmt 1 view .LVU952
	.loc 1 176 18 is_stmt 0 view .LVU953
	movl	%r9d, (%rdi)
	.loc 1 177 3 is_stmt 1 view .LVU954
	.loc 1 177 20 is_stmt 0 view .LVU955
	movl	%r8d, (%rsi)
	.loc 1 178 3 is_stmt 1 view .LVU956
.LVL226:
	.loc 1 178 3 is_stmt 0 view .LVU957
.LBE627:
	.loc 1 172 43 is_stmt 1 view .LVU958
	.loc 1 172 18 view .LVU959
	cmpl	%ecx, %r15d
	jnb	.L97
.LBB628:
	.loc 1 173 3 view .LVU960
.LVL227:
	.loc 1 174 3 view .LVU961
	.loc 1 174 23 is_stmt 0 view .LVU962
	leal	-2(%rdx), %esi
	.loc 1 174 20 view .LVU963
	leaq	(%rax,%rsi,4), %rdi
	.loc 1 174 23 view .LVU964
	movq	%rsi, %rcx
	.loc 1 175 20 view .LVU965
	movl	20(%rsp), %esi
	.loc 1 174 20 view .LVU966
	movl	(%rdi), %r8d
.LVL228:
	.loc 1 175 3 is_stmt 1 view .LVU967
	.loc 1 175 20 is_stmt 0 view .LVU968
	leaq	(%rax,%rsi,4), %rsi
	movl	(%rsi), %r9d
.LVL229:
	.loc 1 176 3 is_stmt 1 view .LVU969
	.loc 1 176 18 is_stmt 0 view .LVU970
	movl	%r9d, (%rdi)
	.loc 1 177 3 is_stmt 1 view .LVU971
	.loc 1 177 20 is_stmt 0 view .LVU972
	movl	%r8d, (%rsi)
	.loc 1 178 3 is_stmt 1 view .LVU973
.LVL230:
	.loc 1 178 3 is_stmt 0 view .LVU974
.LBE628:
	.loc 1 172 43 is_stmt 1 view .LVU975
	.loc 1 172 18 view .LVU976
	cmpl	%ecx, %r15d
	jnb	.L97
.LBB629:
	.loc 1 173 3 view .LVU977
.LVL231:
	.loc 1 174 3 view .LVU978
	.loc 1 174 23 is_stmt 0 view .LVU979
	leal	-3(%rdx), %esi
	.loc 1 174 20 view .LVU980
	leaq	(%rax,%rsi,4), %rdi
	.loc 1 174 23 view .LVU981
	movq	%rsi, %rcx
	.loc 1 175 20 view .LVU982
	movl	24(%rsp), %esi
	.loc 1 174 20 view .LVU983
	movl	(%rdi), %r8d
.LVL232:
	.loc 1 175 3 is_stmt 1 view .LVU984
	.loc 1 175 20 is_stmt 0 view .LVU985
	leaq	(%rax,%rsi,4), %rsi
	movl	(%rsi), %r9d
.LVL233:
	.loc 1 176 3 is_stmt 1 view .LVU986
	.loc 1 176 18 is_stmt 0 view .LVU987
	movl	%r9d, (%rdi)
	.loc 1 177 3 is_stmt 1 view .LVU988
	.loc 1 177 20 is_stmt 0 view .LVU989
	movl	%r8d, (%rsi)
	.loc 1 178 3 is_stmt 1 view .LVU990
.LVL234:
	.loc 1 178 3 is_stmt 0 view .LVU991
.LBE629:
	.loc 1 172 43 is_stmt 1 view .LVU992
	.loc 1 172 18 view .LVU993
	cmpl	%ecx, %r15d
	jnb	.L97
.LBB630:
	.loc 1 173 3 view .LVU994
.LVL235:
	.loc 1 174 3 view .LVU995
	.loc 1 174 23 is_stmt 0 view .LVU996
	leal	-4(%rdx), %esi
	.loc 1 174 20 view .LVU997
	leaq	(%rax,%rsi,4), %rdi
	.loc 1 174 23 view .LVU998
	movq	%rsi, %rcx
	.loc 1 175 20 view .LVU999
	movl	28(%rsp), %esi
	.loc 1 174 20 view .LVU1000
	movl	(%rdi), %r8d
.LVL236:
	.loc 1 175 3 is_stmt 1 view .LVU1001
	.loc 1 175 20 is_stmt 0 view .LVU1002
	leaq	(%rax,%rsi,4), %rsi
	movl	(%rsi), %r9d
.LVL237:
	.loc 1 176 3 is_stmt 1 view .LVU1003
	.loc 1 176 18 is_stmt 0 view .LVU1004
	movl	%r9d, (%rdi)
	.loc 1 177 3 is_stmt 1 view .LVU1005
	.loc 1 177 20 is_stmt 0 view .LVU1006
	movl	%r8d, (%rsi)
	.loc 1 178 3 is_stmt 1 view .LVU1007
.LVL238:
	.loc 1 178 3 is_stmt 0 view .LVU1008
.LBE630:
	.loc 1 172 43 is_stmt 1 view .LVU1009
	.loc 1 172 18 view .LVU1010
	cmpl	%ecx, %r15d
	jnb	.L97
.LBB631:
	.loc 1 173 3 view .LVU1011
.LVL239:
	.loc 1 174 3 view .LVU1012
	.loc 1 174 23 is_stmt 0 view .LVU1013
	leal	-5(%rdx), %esi
	.loc 1 174 20 view .LVU1014
	leaq	(%rax,%rsi,4), %rdi
	.loc 1 174 23 view .LVU1015
	movq	%rsi, %rcx
	.loc 1 175 20 view .LVU1016
	movl	32(%rsp), %esi
	.loc 1 174 20 view .LVU1017
	movl	(%rdi), %r8d
.LVL240:
	.loc 1 175 3 is_stmt 1 view .LVU1018
	.loc 1 175 20 is_stmt 0 view .LVU1019
	leaq	(%rax,%rsi,4), %rsi
	movl	(%rsi), %r9d
.LVL241:
	.loc 1 176 3 is_stmt 1 view .LVU1020
	.loc 1 176 18 is_stmt 0 view .LVU1021
	movl	%r9d, (%rdi)
	.loc 1 177 3 is_stmt 1 view .LVU1022
	.loc 1 177 20 is_stmt 0 view .LVU1023
	movl	%r8d, (%rsi)
	.loc 1 178 3 is_stmt 1 view .LVU1024
.LVL242:
	.loc 1 178 3 is_stmt 0 view .LVU1025
.LBE631:
	.loc 1 172 43 is_stmt 1 view .LVU1026
	.loc 1 172 18 view .LVU1027
	cmpl	%ecx, %r15d
	jnb	.L97
.LBB632:
	.loc 1 173 3 view .LVU1028
.LVL243:
	.loc 1 174 3 view .LVU1029
	.loc 1 174 23 is_stmt 0 view .LVU1030
	leal	-6(%rdx), %esi
	.loc 1 174 20 view .LVU1031
	leaq	(%rax,%rsi,4), %rdi
	.loc 1 174 23 view .LVU1032
	movq	%rsi, %rcx
	.loc 1 175 20 view .LVU1033
	movl	36(%rsp), %esi
	.loc 1 174 20 view .LVU1034
	movl	(%rdi), %r8d
.LVL244:
	.loc 1 175 3 is_stmt 1 view .LVU1035
	.loc 1 175 20 is_stmt 0 view .LVU1036
	leaq	(%rax,%rsi,4), %rsi
	movl	(%rsi), %r9d
.LVL245:
	.loc 1 176 3 is_stmt 1 view .LVU1037
	.loc 1 176 18 is_stmt 0 view .LVU1038
	movl	%r9d, (%rdi)
	.loc 1 177 3 is_stmt 1 view .LVU1039
	.loc 1 177 20 is_stmt 0 view .LVU1040
	movl	%r8d, (%rsi)
	.loc 1 178 3 is_stmt 1 view .LVU1041
.LVL246:
	.loc 1 178 3 is_stmt 0 view .LVU1042
.LBE632:
	.loc 1 172 43 is_stmt 1 view .LVU1043
	.loc 1 172 18 view .LVU1044
	cmpl	%ecx, %r15d
	jnb	.L97
.LBB633:
	.loc 1 173 3 view .LVU1045
.LVL247:
	.loc 1 174 3 view .LVU1046
	.loc 1 174 23 is_stmt 0 view .LVU1047
	leal	-7(%rdx), %esi
	.loc 1 174 20 view .LVU1048
	leaq	(%rax,%rsi,4), %rdi
	.loc 1 174 23 view .LVU1049
	movq	%rsi, %rcx
	.loc 1 175 20 view .LVU1050
	movl	40(%rsp), %esi
	.loc 1 174 20 view .LVU1051
	movl	(%rdi), %r8d
.LVL248:
	.loc 1 175 3 is_stmt 1 view .LVU1052
	.loc 1 175 20 is_stmt 0 view .LVU1053
	leaq	(%rax,%rsi,4), %rsi
	movl	(%rsi), %r9d
.LVL249:
	.loc 1 176 3 is_stmt 1 view .LVU1054
	.loc 1 176 18 is_stmt 0 view .LVU1055
	movl	%r9d, (%rdi)
	.loc 1 177 3 is_stmt 1 view .LVU1056
	.loc 1 177 20 is_stmt 0 view .LVU1057
	movl	%r8d, (%rsi)
	.loc 1 178 3 is_stmt 1 view .LVU1058
.LVL250:
	.loc 1 178 3 is_stmt 0 view .LVU1059
.LBE633:
	.loc 1 172 43 is_stmt 1 view .LVU1060
	.loc 1 172 18 view .LVU1061
	cmpl	%ecx, %r15d
	jnb	.L97
.LBB634:
	.loc 1 173 3 discriminator 3 view .LVU1062
.LVL251:
	.loc 1 174 3 discriminator 3 view .LVU1063
	.loc 1 175 20 is_stmt 0 discriminator 3 view .LVU1064
	movl	44(%rsp), %esi
	.loc 1 174 23 discriminator 3 view .LVU1065
	subl	$8, %edx
.LVL252:
	.loc 1 174 20 discriminator 3 view .LVU1066
	leaq	(%rax,%rdx,4), %rdx
	.loc 1 175 20 discriminator 3 view .LVU1067
	leaq	(%rax,%rsi,4), %rax
.LVL253:
	.loc 1 174 20 discriminator 3 view .LVU1068
	movl	(%rdx), %ecx
.LVL254:
	.loc 1 175 3 is_stmt 1 discriminator 3 view .LVU1069
	.loc 1 175 20 is_stmt 0 discriminator 3 view .LVU1070
	movl	(%rax), %esi
.LVL255:
	.loc 1 176 3 is_stmt 1 discriminator 3 view .LVU1071
	.loc 1 176 18 is_stmt 0 discriminator 3 view .LVU1072
	movl	%esi, (%rdx)
	.loc 1 177 3 is_stmt 1 discriminator 3 view .LVU1073
	.loc 1 177 20 is_stmt 0 discriminator 3 view .LVU1074
	movl	%ecx, (%rax)
	.loc 1 178 3 is_stmt 1 discriminator 3 view .LVU1075
	.loc 1 178 3 is_stmt 0 discriminator 3 view .LVU1076
.LBE634:
	.loc 1 172 43 is_stmt 1 discriminator 3 view .LVU1077
.LVL256:
	.loc 1 172 18 discriminator 3 view .LVU1078
.L97:
	.loc 1 172 18 is_stmt 0 discriminator 3 view .LVU1079
.LBE626:
	.loc 1 180 1 view .LVU1080
	movq	56(%rsp), %rax
	subq	%fs:40, %rax
	jne	.L110
	vzeroupper
.LVL257:
	.loc 1 180 1 view .LVU1081
	leaq	-40(%rbp), %rsp
.LVL258:
	.loc 1 180 1 view .LVU1082
	popq	%rbx
	popq	%r12
	popq	%r13
	popq	%r14
	popq	%r15
.LVL259:
	.loc 1 180 1 view .LVU1083
	popq	%rbp
	.cfi_remember_state
	.cfi_def_cfa 7, 8
.LVL260:
	.loc 1 180 1 view .LVU1084
	ret
.LVL261:
.L110:
	.cfi_restore_state
	.loc 1 180 1 view .LVU1085
	vzeroupper
.LVL262:
	.loc 1 180 1 view .LVU1086
	call	__stack_chk_fail@PLT
.LVL263:
	.cfi_endproc
.LFE5705:
	.size	avx_xorshift128plus_shuffle32_partial, .-avx_xorshift128plus_shuffle32_partial
	.p2align 4
	.globl	avx_xorshift128plus_shuffle32
	.type	avx_xorshift128plus_shuffle32, @function
avx_xorshift128plus_shuffle32:
.LVL264:
.LFB5704:
	.loc 1 146 37 is_stmt 1 view -0
	.cfi_startproc
	.loc 1 146 37 is_stmt 0 view .LVU1088
	endbr64
	.loc 1 147 2 is_stmt 1 view .LVU1089
	movl	$1, %ecx
	jmp	avx_xorshift128plus_shuffle32_partial
.LVL265:
	.loc 1 147 2 is_stmt 0 view .LVU1090
	.cfi_endproc
.LFE5704:
	.size	avx_xorshift128plus_shuffle32, .-avx_xorshift128plus_shuffle32
	.section	.rodata.cst32,"aM",@progbits,32
	.align 32
.LC0:
	.long	-8
	.long	-8
	.long	-8
	.long	-8
	.long	-8
	.long	-8
	.long	-8
	.long	-8
	.text
.Letext0:
	.file 5 "/usr/include/x86_64-linux-gnu/bits/types.h"
	.file 6 "/usr/include/x86_64-linux-gnu/bits/stdint-uintn.h"
	.file 7 "/usr/lib/gcc/x86_64-linux-gnu/11/include/emmintrin.h"
	.file 8 "SIMDxorshift/include/simdxorshift128plus.h"
	.section	.note.GNU-stack,"",@progbits
	.section	.note.gnu.property,"a"
	.align 8
	.long	1f - 0f
	.long	4f - 1f
	.long	5
0:
	.string	"GNU"
1:
	.align 8
	.long	0xc0000002
	.long	3f - 2f
2:
	.long	0x3
3:
	.align 8
4:
