	.file	"xorshift128plus.c"
	.text
.Ltext0:
	.file 0 "/home/sam/Desktop/2022-Fall-Parallel-Programming/HW2/part1" "SIMDxorshift/src//xorshift128plus.c"
	.p2align 4
	.globl	xorshift128plus
	.type	xorshift128plus, @function
xorshift128plus:
.LVL0:
.LFB1:
	.file 1 "SIMDxorshift/src//xorshift128plus.c"
	.loc 1 3 55 view -0
	.cfi_startproc
	.loc 1 3 55 is_stmt 0 view .LVU1
	endbr64
	.loc 1 4 5 is_stmt 1 view .LVU2
	.loc 1 4 14 is_stmt 0 view .LVU3
	movq	(%rdi), %rax
.LVL1:
	.loc 1 5 5 is_stmt 1 view .LVU4
	.loc 1 5 20 is_stmt 0 view .LVU5
	movq	8(%rdi), %rcx
.LVL2:
	.loc 1 6 5 is_stmt 1 view .LVU6
	.loc 1 7 5 view .LVU7
	.loc 1 7 14 is_stmt 0 view .LVU8
	movq	%rax, %rdx
	.loc 1 6 16 view .LVU9
	vmovq	%rcx, %xmm1
	.loc 1 7 14 view .LVU10
	salq	$23, %rdx
	.loc 1 7 8 view .LVU11
	xorq	%rax, %rdx
.LVL3:
	.loc 1 8 5 is_stmt 1 view .LVU12
	.loc 1 8 45 is_stmt 0 view .LVU13
	movq	%rcx, %rax
	shrq	$5, %rax
	.loc 1 8 39 view .LVU14
	xorq	%rcx, %rax
	xorq	%rdx, %rax
	.loc 1 8 32 view .LVU15
	shrq	$18, %rdx
.LVL4:
	.loc 1 8 39 view .LVU16
	xorq	%rdx, %rax
	.loc 1 6 16 view .LVU17
	vpinsrq	$1, %rax, %xmm1, %xmm0
	.loc 1 9 23 view .LVU18
	addq	%rcx, %rax
	.loc 1 6 16 view .LVU19
	vmovdqu	%xmm0, (%rdi)
.LVL5:
	.loc 1 9 5 is_stmt 1 view .LVU20
	.loc 1 10 1 is_stmt 0 view .LVU21
	ret
	.cfi_endproc
.LFE1:
	.size	xorshift128plus, .-xorshift128plus
	.p2align 4
	.globl	xorshift128plus_jump
	.type	xorshift128plus_jump, @function
xorshift128plus_jump:
.LVL6:
.LFB2:
	.loc 1 13 56 is_stmt 1 view -0
	.cfi_startproc
	.loc 1 13 56 is_stmt 0 view .LVU23
	endbr64
	.loc 1 14 5 is_stmt 1 view .LVU24
	.loc 1 15 5 view .LVU25
.LVL7:
	.loc 1 16 5 view .LVU26
	.loc 1 17 5 view .LVU27
.LBB20:
	.loc 1 17 9 view .LVU28
	.loc 1 17 31 view .LVU29
	movq	8(%rdi), %r9
	movq	(%rdi), %r10
.LVL8:
.LBB21:
	.loc 1 18 26 view .LVU30
.LBE21:
.LBE20:
	.loc 1 13 56 is_stmt 0 view .LVU31
	movq	%rdi, %r8
.LBB36:
.LBB34:
	.loc 1 18 17 view .LVU32
	xorl	%ecx, %ecx
	.loc 1 19 17 view .LVU33
	movabsq	$-8476663413540573697, %r11
.LBE34:
.LBE36:
	.loc 1 16 14 view .LVU34
	xorl	%esi, %esi
	.loc 1 15 14 view .LVU35
	xorl	%edi, %edi
.LVL9:
	.loc 1 15 14 view .LVU36
	jmp	.L5
.LVL10:
	.p2align 4,,10
	.p2align 3
.L8:
.LBB37:
.LBB35:
.LBB22:
.LBB23:
	.loc 1 8 39 view .LVU37
	movq	%rax, %r9
.LVL11:
.L5:
	.loc 1 8 39 view .LVU38
.LBE23:
.LBE22:
	.loc 1 19 13 is_stmt 1 view .LVU39
	.loc 1 19 16 is_stmt 0 view .LVU40
	btq	%rcx, %r11
	jnc	.L4
	.loc 1 20 17 is_stmt 1 view .LVU41
	.loc 1 20 20 is_stmt 0 view .LVU42
	xorq	%r10, %rdi
.LVL12:
	.loc 1 21 17 is_stmt 1 view .LVU43
	.loc 1 21 20 is_stmt 0 view .LVU44
	xorq	%r9, %rsi
.LVL13:
.L4:
	.loc 1 23 13 is_stmt 1 view .LVU45
.LBB29:
.LBI22:
	.loc 1 3 10 view .LVU46
.LBB24:
	.loc 1 4 5 view .LVU47
	.loc 1 5 5 view .LVU48
	.loc 1 6 5 view .LVU49
	.loc 1 7 5 view .LVU50
	.loc 1 7 14 is_stmt 0 view .LVU51
	movq	%r10, %rdx
	.loc 1 8 45 view .LVU52
	movq	%r9, %rax
.LBE24:
.LBE29:
	.loc 1 18 33 view .LVU53
	addl	$1, %ecx
.LVL14:
.LBB30:
.LBB25:
	.loc 1 7 14 view .LVU54
	salq	$23, %rdx
	.loc 1 8 45 view .LVU55
	shrq	$5, %rax
	.loc 1 7 8 view .LVU56
	xorq	%r10, %rdx
.LVL15:
	.loc 1 8 5 is_stmt 1 view .LVU57
	movq	%r9, %r10
	.loc 1 8 39 is_stmt 0 view .LVU58
	xorq	%rdx, %rax
	.loc 1 8 32 view .LVU59
	shrq	$18, %rdx
.LVL16:
	.loc 1 8 39 view .LVU60
	xorq	%r9, %rax
	xorq	%rdx, %rax
	.loc 1 9 5 is_stmt 1 view .LVU61
.LVL17:
	.loc 1 9 5 is_stmt 0 view .LVU62
.LBE25:
.LBE30:
	.loc 1 18 33 is_stmt 1 view .LVU63
	.loc 1 18 26 view .LVU64
	cmpl	$64, %ecx
	jne	.L8
	.loc 1 19 17 is_stmt 0 view .LVU65
	movabsq	$1305993406145048470, %r11
	.loc 1 18 17 view .LVU66
	xorl	%r10d, %r10d
	jmp	.L7
.LVL18:
	.p2align 4,,10
	.p2align 3
.L9:
.LBB31:
.LBB26:
	.loc 1 8 39 view .LVU67
	movq	%rdx, %rax
.LVL19:
.L7:
	.loc 1 8 39 view .LVU68
.LBE26:
.LBE31:
	.loc 1 19 13 is_stmt 1 view .LVU69
	.loc 1 19 16 is_stmt 0 view .LVU70
	btq	%r10, %r11
	jnc	.L6
	.loc 1 20 17 is_stmt 1 view .LVU71
	.loc 1 20 20 is_stmt 0 view .LVU72
	xorq	%r9, %rdi
.LVL20:
	.loc 1 21 17 is_stmt 1 view .LVU73
	.loc 1 21 20 is_stmt 0 view .LVU74
	xorq	%rax, %rsi
.LVL21:
.L6:
	.loc 1 23 13 is_stmt 1 view .LVU75
.LBB32:
	.loc 1 3 10 view .LVU76
.LBB27:
	.loc 1 4 5 view .LVU77
	.loc 1 5 5 view .LVU78
	.loc 1 6 5 view .LVU79
	.loc 1 7 5 view .LVU80
	.loc 1 7 14 is_stmt 0 view .LVU81
	movq	%r9, %rcx
	.loc 1 8 45 view .LVU82
	movq	%rax, %rdx
.LBE27:
.LBE32:
	.loc 1 18 33 view .LVU83
	addl	$1, %r10d
.LVL22:
.LBB33:
.LBB28:
	.loc 1 7 14 view .LVU84
	salq	$23, %rcx
	.loc 1 8 45 view .LVU85
	shrq	$5, %rdx
	.loc 1 7 8 view .LVU86
	xorq	%r9, %rcx
.LVL23:
	.loc 1 8 5 is_stmt 1 view .LVU87
	movq	%rax, %r9
	.loc 1 8 39 is_stmt 0 view .LVU88
	xorq	%rcx, %rdx
	.loc 1 8 32 view .LVU89
	shrq	$18, %rcx
.LVL24:
	.loc 1 8 39 view .LVU90
	xorq	%rax, %rdx
	xorq	%rcx, %rdx
	.loc 1 9 5 is_stmt 1 view .LVU91
.LVL25:
	.loc 1 9 5 is_stmt 0 view .LVU92
.LBE28:
.LBE33:
	.loc 1 18 33 is_stmt 1 view .LVU93
	.loc 1 18 26 view .LVU94
	cmpl	$64, %r10d
	jne	.L9
	.loc 1 18 26 is_stmt 0 view .LVU95
.LBE35:
	.loc 1 17 66 is_stmt 1 view .LVU96
.LVL26:
	.loc 1 17 31 view .LVU97
.LBE37:
	.loc 1 26 5 view .LVU98
	.loc 1 26 16 is_stmt 0 view .LVU99
	movq	%rdi, (%r8)
	.loc 1 27 5 is_stmt 1 view .LVU100
	.loc 1 27 16 is_stmt 0 view .LVU101
	movq	%rsi, 8(%r8)
	.loc 1 28 1 view .LVU102
	ret
	.cfi_endproc
.LFE2:
	.size	xorshift128plus_jump, .-xorshift128plus_jump
	.p2align 4
	.globl	xorshift128plus_shuffle32_partial
	.type	xorshift128plus_shuffle32_partial, @function
xorshift128plus_shuffle32_partial:
.LVL27:
.LFB6:
	.loc 1 54 136 is_stmt 1 view -0
	.cfi_startproc
	.loc 1 54 136 is_stmt 0 view .LVU104
	endbr64
	.loc 1 55 5 is_stmt 1 view .LVU105
	.loc 1 56 5 view .LVU106
	.loc 1 57 5 view .LVU107
	testl	%ecx, %ecx
	movl	$1, %eax
	.loc 1 54 136 is_stmt 0 view .LVU108
	pushq	%r15
	.cfi_def_cfa_offset 16
	.cfi_offset 15, -16
	movq	%rsi, %r8
	pushq	%r14
	.cfi_def_cfa_offset 24
	.cfi_offset 14, -24
	cmovne	%ecx, %eax
	movl	%edx, %esi
.LVL28:
	.loc 1 54 136 view .LVU109
	pushq	%r13
	.cfi_def_cfa_offset 32
	.cfi_offset 13, -32
	pushq	%r12
	.cfi_def_cfa_offset 40
	.cfi_offset 12, -40
	.loc 1 58 42 view .LVU110
	leal	1(%rax), %r15d
	.loc 1 54 136 view .LVU111
	pushq	%rbp
	.cfi_def_cfa_offset 48
	.cfi_offset 6, -48
	pushq	%rbx
	.cfi_def_cfa_offset 56
	.cfi_offset 3, -56
	.loc 1 54 136 view .LVU112
	movq	%rdi, -24(%rsp)
	movl	%eax, -12(%rsp)
.LVL29:
	.loc 1 58 5 is_stmt 1 view .LVU113
	.loc 1 58 19 view .LVU114
	cmpl	%r15d, %esi
	jbe	.L17
	movq	(%rdi), %rax
.LVL30:
	.loc 1 58 19 is_stmt 0 view .LVU115
	movl	%esi, %ecx
	movq	8(%rdi), %rdi
.LVL31:
	.loc 1 58 19 view .LVU116
	jmp	.L18
.LVL32:
	.p2align 4,,10
	.p2align 3
.L20:
.LBB38:
.LBB39:
.LBB40:
.LBB41:
.LBB42:
	.loc 1 8 39 view .LVU117
	movq	%rdx, %rdi
.LVL33:
.L18:
	.loc 1 8 39 view .LVU118
.LBE42:
.LBE41:
.LBE40:
.LBE39:
	.loc 1 59 6 is_stmt 1 discriminator 3 view .LVU119
.LBB56:
.LBI39:
	.loc 1 36 13 discriminator 3 view .LVU120
.LBB51:
	.loc 1 38 2 discriminator 3 view .LVU121
.LBB47:
.LBI41:
	.loc 1 3 10 discriminator 3 view .LVU122
.LBB43:
	.loc 1 4 5 discriminator 3 view .LVU123
	.loc 1 5 5 discriminator 3 view .LVU124
	.loc 1 6 5 discriminator 3 view .LVU125
	.loc 1 7 5 discriminator 3 view .LVU126
	.loc 1 7 14 is_stmt 0 discriminator 3 view .LVU127
	movq	%rax, %rdx
.LBE43:
.LBE47:
	.loc 1 40 29 discriminator 3 view .LVU128
	leal	-1(%rsi), %r9d
.LBB48:
.LBB44:
	.loc 1 7 14 discriminator 3 view .LVU129
	salq	$23, %rdx
.LBE44:
.LBE48:
.LBE51:
.LBE56:
	.loc 1 60 38 discriminator 3 view .LVU130
	leaq	(%r8,%r9,4), %rbx
.LBB57:
.LBB52:
.LBB49:
.LBB45:
	.loc 1 7 8 discriminator 3 view .LVU131
	xorq	%rax, %rdx
.LVL34:
	.loc 1 8 5 is_stmt 1 discriminator 3 view .LVU132
	.loc 1 8 45 is_stmt 0 discriminator 3 view .LVU133
	movq	%rdi, %rax
.LBE45:
.LBE49:
.LBE52:
.LBE57:
	.loc 1 60 24 discriminator 3 view .LVU134
	movl	(%rbx), %r13d
.LBB58:
.LBB53:
.LBB50:
.LBB46:
	.loc 1 8 45 discriminator 3 view .LVU135
	shrq	$5, %rax
	xorq	%rdx, %rax
	.loc 1 8 32 discriminator 3 view .LVU136
	shrq	$18, %rdx
.LVL35:
	.loc 1 8 32 discriminator 3 view .LVU137
	xorq	%rdi, %rax
	.loc 1 8 39 discriminator 3 view .LVU138
	xorq	%rax, %rdx
	.loc 1 9 5 is_stmt 1 discriminator 3 view .LVU139
	.loc 1 9 23 is_stmt 0 discriminator 3 view .LVU140
	leaq	(%rdi,%rdx), %rax
.LVL36:
	.loc 1 9 23 discriminator 3 view .LVU141
.LBE46:
.LBE50:
	.loc 1 39 2 is_stmt 1 discriminator 3 view .LVU142
	.loc 1 40 2 discriminator 3 view .LVU143
	.loc 1 40 2 is_stmt 0 discriminator 3 view .LVU144
.LBE53:
.LBE58:
	.loc 1 60 9 is_stmt 1 discriminator 3 view .LVU145
	.loc 1 61 9 discriminator 3 view .LVU146
.LBB59:
.LBB54:
	.loc 1 39 22 is_stmt 0 discriminator 3 view .LVU147
	movl	%eax, %r10d
	.loc 1 40 22 discriminator 3 view .LVU148
	shrq	$32, %rax
.LVL37:
	.loc 1 39 46 discriminator 3 view .LVU149
	imulq	%r10, %rcx
	.loc 1 40 29 discriminator 3 view .LVU150
	imulq	%r9, %rax
	.loc 1 39 56 discriminator 3 view .LVU151
	shrq	$32, %rcx
.LBE54:
.LBE59:
	.loc 1 61 38 discriminator 3 view .LVU152
	leaq	(%r8,%rcx,4), %r11
.LBB60:
.LBB55:
	.loc 1 40 39 discriminator 3 view .LVU153
	shrq	$32, %rax
.LBE55:
.LBE60:
	.loc 1 65 34 discriminator 3 view .LVU154
	leal	-2(%rsi), %ecx
	.loc 1 61 24 discriminator 3 view .LVU155
	movl	(%r11), %r14d
.LVL38:
	.loc 1 62 9 is_stmt 1 discriminator 3 view .LVU156
	.loc 1 66 32 is_stmt 0 discriminator 3 view .LVU157
	leaq	(%r8,%rax,4), %r9
.LVL39:
	.loc 1 65 32 discriminator 3 view .LVU158
	leaq	(%r8,%rcx,4), %r10
	.loc 1 65 34 discriminator 3 view .LVU159
	movq	%rcx, %rsi
.LVL40:
	.loc 1 65 34 discriminator 3 view .LVU160
	movq	%rdi, %rax
	.loc 1 62 24 discriminator 3 view .LVU161
	movl	%r14d, (%rbx)
	.loc 1 63 9 is_stmt 1 discriminator 3 view .LVU162
	.loc 1 63 27 is_stmt 0 discriminator 3 view .LVU163
	movl	%r13d, (%r11)
	.loc 1 65 9 is_stmt 1 discriminator 3 view .LVU164
	.loc 1 65 18 is_stmt 0 discriminator 3 view .LVU165
	movl	(%r10), %ebp
.LVL41:
	.loc 1 66 9 is_stmt 1 discriminator 3 view .LVU166
	.loc 1 66 18 is_stmt 0 discriminator 3 view .LVU167
	movl	(%r9), %r12d
.LVL42:
	.loc 1 67 9 is_stmt 1 discriminator 3 view .LVU168
	.loc 1 67 24 is_stmt 0 discriminator 3 view .LVU169
	movl	%r12d, (%r10)
	.loc 1 68 9 is_stmt 1 discriminator 3 view .LVU170
	.loc 1 68 27 is_stmt 0 discriminator 3 view .LVU171
	movl	%ebp, (%r9)
.LBE38:
	.loc 1 58 48 is_stmt 1 discriminator 3 view .LVU172
.LVL43:
	.loc 1 58 19 discriminator 3 view .LVU173
	cmpl	%r15d, %ecx
	ja	.L20
	movq	-24(%rsp), %rax
	vmovq	%rdi, %xmm1
	vpinsrq	$1, %rdx, %xmm1, %xmm0
	vmovdqu	%xmm0, (%rax)
	movl	%r14d, (%rbx)
	movl	%r13d, (%r11)
	movl	%r12d, (%r10)
	movl	%ebp, (%r9)
.LVL44:
.L17:
	.loc 1 71 5 view .LVU174
	.loc 1 71 7 is_stmt 0 view .LVU175
	cmpl	%esi, -12(%rsp)
	jnb	.L21
.LBB61:
	.loc 1 72 6 is_stmt 1 view .LVU176
.LVL45:
.LBB62:
.LBI62:
	.loc 1 43 17 view .LVU177
.LBB63:
	.loc 1 44 2 view .LVU178
.LBB64:
.LBI64:
	.loc 1 3 10 view .LVU179
.LBB65:
	.loc 1 4 5 view .LVU180
	.loc 1 4 14 is_stmt 0 view .LVU181
	movq	-24(%rsp), %rbx
	movq	(%rbx), %rdx
.LVL46:
	.loc 1 5 5 is_stmt 1 view .LVU182
	.loc 1 5 20 is_stmt 0 view .LVU183
	movq	8(%rbx), %rcx
.LVL47:
	.loc 1 6 5 is_stmt 1 view .LVU184
	.loc 1 7 5 view .LVU185
	.loc 1 7 14 is_stmt 0 view .LVU186
	movq	%rdx, %rax
	.loc 1 6 16 view .LVU187
	vmovq	%rcx, %xmm2
	.loc 1 7 14 view .LVU188
	salq	$23, %rax
	.loc 1 7 8 view .LVU189
	xorq	%rax, %rdx
.LVL48:
	.loc 1 8 5 is_stmt 1 view .LVU190
	.loc 1 8 45 is_stmt 0 view .LVU191
	movq	%rcx, %rax
	shrq	$5, %rax
	.loc 1 8 39 view .LVU192
	xorq	%rcx, %rax
	xorq	%rdx, %rax
	.loc 1 8 32 view .LVU193
	shrq	$18, %rdx
.LVL49:
	.loc 1 8 39 view .LVU194
	xorq	%rdx, %rax
.LBE65:
.LBE64:
.LBE63:
.LBE62:
	.loc 1 73 36 view .LVU195
	leal	-1(%rsi), %edx
.LBB74:
.LBB70:
.LBB68:
.LBB66:
	.loc 1 6 16 view .LVU196
	vpinsrq	$1, %rax, %xmm2, %xmm0
.LBE66:
.LBE68:
	.loc 1 45 16 view .LVU197
	addl	%ecx, %eax
.LBE70:
.LBE74:
	.loc 1 73 34 view .LVU198
	leaq	(%r8,%rdx,4), %rdx
.LBB75:
.LBB71:
	.loc 1 45 16 view .LVU199
	movl	%eax, %eax
.LBE71:
.LBE75:
	.loc 1 73 21 view .LVU200
	movl	(%rdx), %edi
.LBB76:
.LBB72:
.LBB69:
.LBB67:
	.loc 1 6 16 view .LVU201
	vmovdqu	%xmm0, (%rbx)
.LVL50:
	.loc 1 9 5 is_stmt 1 view .LVU202
	.loc 1 9 5 is_stmt 0 view .LVU203
.LBE67:
.LBE69:
	.loc 1 45 2 is_stmt 1 view .LVU204
	.loc 1 45 2 is_stmt 0 view .LVU205
.LBE72:
.LBE76:
	.loc 1 73 6 is_stmt 1 view .LVU206
	.loc 1 74 6 view .LVU207
.LBB77:
.LBB73:
	.loc 1 45 40 is_stmt 0 view .LVU208
	imulq	%rsi, %rax
	.loc 1 45 50 view .LVU209
	shrq	$32, %rax
.LBE73:
.LBE77:
	.loc 1 74 34 view .LVU210
	leaq	(%r8,%rax,4), %rax
	.loc 1 74 21 view .LVU211
	movl	(%rax), %ecx
.LVL51:
	.loc 1 75 9 is_stmt 1 view .LVU212
	.loc 1 75 24 is_stmt 0 view .LVU213
	movl	%ecx, (%rdx)
	.loc 1 76 9 is_stmt 1 view .LVU214
	.loc 1 76 26 is_stmt 0 view .LVU215
	movl	%edi, (%rax)
.LVL52:
.L21:
	.loc 1 76 26 view .LVU216
.LBE61:
	.loc 1 79 1 view .LVU217
	popq	%rbx
	.cfi_def_cfa_offset 48
	popq	%rbp
	.cfi_def_cfa_offset 40
	popq	%r12
	.cfi_def_cfa_offset 32
	popq	%r13
	.cfi_def_cfa_offset 24
	popq	%r14
	.cfi_def_cfa_offset 16
	popq	%r15
	.cfi_def_cfa_offset 8
	ret
	.cfi_endproc
.LFE6:
	.size	xorshift128plus_shuffle32_partial, .-xorshift128plus_shuffle32_partial
	.p2align 4
	.globl	xorshift128plus_shuffle32
	.type	xorshift128plus_shuffle32, @function
xorshift128plus_shuffle32:
.LVL53:
.LFB5:
	.loc 1 50 96 is_stmt 1 view -0
	.cfi_startproc
	.loc 1 50 96 is_stmt 0 view .LVU219
	endbr64
	.loc 1 51 5 is_stmt 1 view .LVU220
	movl	$1, %ecx
	jmp	xorshift128plus_shuffle32_partial
.LVL54:
	.loc 1 51 5 is_stmt 0 view .LVU221
	.cfi_endproc
.LFE5:
	.size	xorshift128plus_shuffle32, .-xorshift128plus_shuffle32
.Letext0:
	.file 2 "/usr/include/x86_64-linux-gnu/bits/types.h"
	.file 3 "/usr/include/x86_64-linux-gnu/bits/stdint-uintn.h"
	.file 4 "SIMDxorshift/include/xorshift128plus.h"
	.section	.note.GNU-stack,"",@progbits
	.section	.note.gnu.property,"a"
	.align 8
	.long	1f - 0f
	.long	4f - 1f
	.long	5
0:
	.string	"GNU"
1:
	.align 8
	.long	0xc0000002
	.long	3f - 2f
2:
	.long	0x3
3:
	.align 8
4:
